

Microchip MPLAB XC8 Assembler V2.41 build 20230208172133 
                                                                                               Thu Apr 13 09:50:27 2023

Microchip MPLAB XC8 C Compiler v2.41 (Free license) build 20230208172133 Og1 
     1                           	processor	16F15223
     2                           	pagewidth 120
     3                           	opt	flic
     4                           	psect	idataBANK1,global,class=CODE,delta=2,noexec
     5                           	psect	nvBANK0,global,class=BANK0,space=1,delta=1,noexec
     6                           	psect	cinit,global,class=CODE,merge=1,delta=2
     7                           	psect	bssCOMMON,global,class=COMMON,space=1,delta=1,noexec
     8                           	psect	bssBANK0,global,class=BANK0,space=1,delta=1,noexec
     9                           	psect	dataBANK1,global,class=BANK1,space=1,delta=1,noexec
    10                           	psect	inittext,global,class=CODE,delta=2
    11                           	psect	clrtext,global,class=CODE,delta=2
    12                           	psect	cstackCOMMON,global,class=COMMON,space=1,delta=1,noexec
    13                           	psect	cstackBANK0,global,class=BANK0,space=1,delta=1,noexec
    14                           	psect	maintext,global,class=CODE,merge=1,split=1,delta=2
    15                           	psect	text1,local,class=CODE,merge=1,delta=2
    16                           	psect	text2,local,class=CODE,merge=1,delta=2
    17                           	psect	text3,local,class=CODE,merge=1,delta=2
    18                           	psect	text4,local,class=CODE,merge=1,delta=2
    19                           	psect	text5,local,class=CODE,merge=1,delta=2
    20                           	psect	text6,local,class=CODE,merge=1,delta=2
    21                           	psect	text7,local,class=CODE,merge=1,delta=2
    22                           	psect	text8,local,class=CODE,merge=1,delta=2
    23                           	psect	text9,local,class=CODE,merge=1,delta=2
    24                           	psect	text10,local,class=CODE,merge=1,delta=2
    25                           	psect	text11,local,class=CODE,merge=1,delta=2
    26                           	psect	text12,local,class=CODE,merge=1,delta=2
    27                           	psect	intentry,global,class=CODE,delta=2
    28                           	psect	text14,local,class=CODE,merge=1,delta=2
    29                           	psect	text15,local,class=CODE,merge=1,delta=2
    30                           	psect	text16,local,class=CODE,merge=1,delta=2
    31                           	psect	text17,local,class=CODE,merge=1,delta=2
    32                           	psect	text18,local,class=CODE,merge=1,delta=2
    33                           	psect	text19,local,class=CODE,merge=1,inline,delta=2
    34                           	psect	text20,local,class=CODE,merge=1,inline,delta=2
    35                           	psect	text21,local,class=CODE,merge=1,delta=2
    36                           	psect	text22,local,class=CODE,merge=1,delta=2
    37                           	psect	text23,local,class=CODE,merge=1,inline,delta=2
    38                           	psect	text24,local,class=CODE,merge=1,inline,delta=2
    39                           	psect	text25,local,class=CODE,merge=1,inline,delta=2
    40                           	psect	text26,local,class=CODE,merge=1,inline,delta=2
    41                           	psect	text27,local,class=CODE,merge=1,inline,delta=2
    42                           	psect	text28,local,class=CODE,merge=1,delta=2
    43                           	psect	text29,local,class=CODE,merge=1,delta=2
    44                           	psect	text30,local,class=CODE,merge=1,inline,delta=2
    45                           	psect	idloc,global,abs,ovrld,class=IDLOC,space=5,delta=2,noexec
    46                           	psect	config,global,abs,ovrld,class=CONFIG,space=4,delta=2,noexec
    47                           	dabs	1,0x7E,2
    48     0000                     
    49                           ; Generated 19/07/2022 GMT
    50                           ; 
    51                           ; Copyright © 2022, Microchip Technology Inc. and its subsidiaries ("Microchip")
    52                           ; All rights reserved.
    53                           ; 
    54                           ; This software is developed by Microchip Technology Inc. and its subsidiaries ("Microch
      +                          ip").
    55                           ; 
    56                           ; Redistribution and use in source and binary forms, with or without modification, are
    57                           ; permitted provided that the following conditions are met:
    58                           ; 
    59                           ;     1. Redistributions of source code must retain the above copyright notice, this lis
      +                          t of
    60                           ;        conditions and the following disclaimer.
    61                           ; 
    62                           ;     2. Redistributions in binary form must reproduce the above copyright notice, this 
      +                          list
    63                           ;        of conditions and the following disclaimer in the documentation and/or other
    64                           ;        materials provided with the distribution. Publication is not required when
    65                           ;        this file is used in an embedded application.
    66                           ; 
    67                           ;     3. Microchip's name may not be used to endorse or promote products derived from th
      +                          is
    68                           ;        software without specific prior written permission.
    69                           ; 
    70                           ; THIS SOFTWARE IS PROVIDED BY MICROCHIP "AS IS" AND ANY EXPRESS OR IMPLIED WARRANTIES,
    71                           ; INCLUDING, BUT NOT LIMITED TO, THE IMPLIED WARRANTIES OF MERCHANTABILITY AND FITNESS F
      +                          OR
    72                           ; PURPOSE ARE DISCLAIMED.  IN NO EVENT SHALL MICROCHIP BE LIABLE FOR ANY DIRECT, INDIREC
      +                          T,
    73                           ; INCIDENTAL, SPECIAL, EXEMPLARY, OR CONSEQUENTIAL DAMAGES (INCLUDING BUT NOT LIMITED TO
    74                           ; PROCUREMENT OF SUBSTITUTE GOODS OR SERVICES; LOSS OF USE, DATA OR PROFITS; OR BUSINESS
    75                           ; INTERRUPTION) HOWSOEVER CAUSED AND ON ANY THEORY OF LIABILITY, WHETHER IN CONTRACT, ST
      +                          RICT
    76                           ; LIABILITY, OR TORT (INCLUDING NEGLIGENCE OR OTHERWISE) ARISING IN ANY WAY OUT OF THE U
      +                          SE OF
    77                           ; THIS SOFTWARE, EVEN IF ADVISED OF THE POSSIBILITY OF SUCH DAMAGE.
    78                           ; 
    79                           ; 
    80                           ; Code-generator required, PIC16F15223 Definitions
    81                           ; 
    82                           ; SFR Addresses
    83     0000                     	;# 
    84     0001                     	;# 
    85     0002                     	;# 
    86     0003                     	;# 
    87     0004                     	;# 
    88     0005                     	;# 
    89     0006                     	;# 
    90     0007                     	;# 
    91     0008                     	;# 
    92     0009                     	;# 
    93     000A                     	;# 
    94     000B                     	;# 
    95     000C                     	;# 
    96     000E                     	;# 
    97     0012                     	;# 
    98     0014                     	;# 
    99     0018                     	;# 
   100     001A                     	;# 
   101     009A                     	;# 
   102     009B                     	;# 
   103     009B                     	;# 
   104     009C                     	;# 
   105     009D                     	;# 
   106     009E                     	;# 
   107     009F                     	;# 
   108     010E                     	;# 
   109     010F                     	;# 
   110     0119                     	;# 
   111     011A                     	;# 
   112     011B                     	;# 
   113     011B                     	;# 
   114     011C                     	;# 
   115     011D                     	;# 
   116     011E                     	;# 
   117     011F                     	;# 
   118     018C                     	;# 
   119     018D                     	;# 
   120     018E                     	;# 
   121     018F                     	;# 
   122     0190                     	;# 
   123     0191                     	;# 
   124     0192                     	;# 
   125     020C                     	;# 
   126     020D                     	;# 
   127     020E                     	;# 
   128     020E                     	;# 
   129     020F                     	;# 
   130     020F                     	;# 
   131     0210                     	;# 
   132     0210                     	;# 
   133     0211                     	;# 
   134     0211                     	;# 
   135     028C                     	;# 
   136     028C                     	;# 
   137     028D                     	;# 
   138     028D                     	;# 
   139     028E                     	;# 
   140     028F                     	;# 
   141     0290                     	;# 
   142     0291                     	;# 
   143     030C                     	;# 
   144     030C                     	;# 
   145     030D                     	;# 
   146     030E                     	;# 
   147     030F                     	;# 
   148     0310                     	;# 
   149     0310                     	;# 
   150     0311                     	;# 
   151     0312                     	;# 
   152     0313                     	;# 
   153     0314                     	;# 
   154     0314                     	;# 
   155     0315                     	;# 
   156     0316                     	;# 
   157     0318                     	;# 
   158     0318                     	;# 
   159     0319                     	;# 
   160     031A                     	;# 
   161     059C                     	;# 
   162     059C                     	;# 
   163     059D                     	;# 
   164     059D                     	;# 
   165     059E                     	;# 
   166     059F                     	;# 
   167     070C                     	;# 
   168     070D                     	;# 
   169     070E                     	;# 
   170     0716                     	;# 
   171     0717                     	;# 
   172     0718                     	;# 
   173     080C                     	;# 
   174     0811                     	;# 
   175     0813                     	;# 
   176     0814                     	;# 
   177     081A                     	;# 
   178     081A                     	;# 
   179     081B                     	;# 
   180     081C                     	;# 
   181     081C                     	;# 
   182     081D                     	;# 
   183     081E                     	;# 
   184     081F                     	;# 
   185     088E                     	;# 
   186     0890                     	;# 
   187     0891                     	;# 
   188     0892                     	;# 
   189     0893                     	;# 
   190     090C                     	;# 
   191     1E8F                     	;# 
   192     1E90                     	;# 
   193     1E91                     	;# 
   194     1E92                     	;# 
   195     1E93                     	;# 
   196     1E9C                     	;# 
   197     1EA1                     	;# 
   198     1EA2                     	;# 
   199     1EC3                     	;# 
   200     1EC5                     	;# 
   201     1EC6                     	;# 
   202     1EC7                     	;# 
   203     1ECB                     	;# 
   204     1ECB                     	;# 
   205     1ECB                     	;# 
   206     1ECC                     	;# 
   207     1ECC                     	;# 
   208     1ECC                     	;# 
   209     1F10                     	;# 
   210     1F11                     	;# 
   211     1F12                     	;# 
   212     1F14                     	;# 
   213     1F15                     	;# 
   214     1F20                     	;# 
   215     1F21                     	;# 
   216     1F22                     	;# 
   217     1F23                     	;# 
   218     1F24                     	;# 
   219     1F25                     	;# 
   220     1F38                     	;# 
   221     1F39                     	;# 
   222     1F3A                     	;# 
   223     1F3B                     	;# 
   224     1F3C                     	;# 
   225     1F3D                     	;# 
   226     1F3E                     	;# 
   227     1F3F                     	;# 
   228     1F4E                     	;# 
   229     1F4F                     	;# 
   230     1F50                     	;# 
   231     1F51                     	;# 
   232     1F52                     	;# 
   233     1F53                     	;# 
   234     1F54                     	;# 
   235     1F55                     	;# 
   236     1FE4                     	;# 
   237     1FE5                     	;# 
   238     1FE6                     	;# 
   239     1FE7                     	;# 
   240     1FE8                     	;# 
   241     1FE8                     	;# 
   242     1FE9                     	;# 
   243     1FEA                     	;# 
   244     1FEB                     	;# 
   245     1FED                     	;# 
   246     1FEE                     	;# 
   247     1FEF                     	;# 
   248     0000                     	;# 
   249     0001                     	;# 
   250     0002                     	;# 
   251     0003                     	;# 
   252     0004                     	;# 
   253     0005                     	;# 
   254     0006                     	;# 
   255     0007                     	;# 
   256     0008                     	;# 
   257     0009                     	;# 
   258     000A                     	;# 
   259     000B                     	;# 
   260     000C                     	;# 
   261     000E                     	;# 
   262     0012                     	;# 
   263     0014                     	;# 
   264     0018                     	;# 
   265     001A                     	;# 
   266     009A                     	;# 
   267     009B                     	;# 
   268     009B                     	;# 
   269     009C                     	;# 
   270     009D                     	;# 
   271     009E                     	;# 
   272     009F                     	;# 
   273     010E                     	;# 
   274     010F                     	;# 
   275     0119                     	;# 
   276     011A                     	;# 
   277     011B                     	;# 
   278     011B                     	;# 
   279     011C                     	;# 
   280     011D                     	;# 
   281     011E                     	;# 
   282     011F                     	;# 
   283     018C                     	;# 
   284     018D                     	;# 
   285     018E                     	;# 
   286     018F                     	;# 
   287     0190                     	;# 
   288     0191                     	;# 
   289     0192                     	;# 
   290     020C                     	;# 
   291     020D                     	;# 
   292     020E                     	;# 
   293     020E                     	;# 
   294     020F                     	;# 
   295     020F                     	;# 
   296     0210                     	;# 
   297     0210                     	;# 
   298     0211                     	;# 
   299     0211                     	;# 
   300     028C                     	;# 
   301     028C                     	;# 
   302     028D                     	;# 
   303     028D                     	;# 
   304     028E                     	;# 
   305     028F                     	;# 
   306     0290                     	;# 
   307     0291                     	;# 
   308     030C                     	;# 
   309     030C                     	;# 
   310     030D                     	;# 
   311     030E                     	;# 
   312     030F                     	;# 
   313     0310                     	;# 
   314     0310                     	;# 
   315     0311                     	;# 
   316     0312                     	;# 
   317     0313                     	;# 
   318     0314                     	;# 
   319     0314                     	;# 
   320     0315                     	;# 
   321     0316                     	;# 
   322     0318                     	;# 
   323     0318                     	;# 
   324     0319                     	;# 
   325     031A                     	;# 
   326     059C                     	;# 
   327     059C                     	;# 
   328     059D                     	;# 
   329     059D                     	;# 
   330     059E                     	;# 
   331     059F                     	;# 
   332     070C                     	;# 
   333     070D                     	;# 
   334     070E                     	;# 
   335     0716                     	;# 
   336     0717                     	;# 
   337     0718                     	;# 
   338     080C                     	;# 
   339     0811                     	;# 
   340     0813                     	;# 
   341     0814                     	;# 
   342     081A                     	;# 
   343     081A                     	;# 
   344     081B                     	;# 
   345     081C                     	;# 
   346     081C                     	;# 
   347     081D                     	;# 
   348     081E                     	;# 
   349     081F                     	;# 
   350     088E                     	;# 
   351     0890                     	;# 
   352     0891                     	;# 
   353     0892                     	;# 
   354     0893                     	;# 
   355     090C                     	;# 
   356     1E8F                     	;# 
   357     1E90                     	;# 
   358     1E91                     	;# 
   359     1E92                     	;# 
   360     1E93                     	;# 
   361     1E9C                     	;# 
   362     1EA1                     	;# 
   363     1EA2                     	;# 
   364     1EC3                     	;# 
   365     1EC5                     	;# 
   366     1EC6                     	;# 
   367     1EC7                     	;# 
   368     1ECB                     	;# 
   369     1ECB                     	;# 
   370     1ECB                     	;# 
   371     1ECC                     	;# 
   372     1ECC                     	;# 
   373     1ECC                     	;# 
   374     1F10                     	;# 
   375     1F11                     	;# 
   376     1F12                     	;# 
   377     1F14                     	;# 
   378     1F15                     	;# 
   379     1F20                     	;# 
   380     1F21                     	;# 
   381     1F22                     	;# 
   382     1F23                     	;# 
   383     1F24                     	;# 
   384     1F25                     	;# 
   385     1F38                     	;# 
   386     1F39                     	;# 
   387     1F3A                     	;# 
   388     1F3B                     	;# 
   389     1F3C                     	;# 
   390     1F3D                     	;# 
   391     1F3E                     	;# 
   392     1F3F                     	;# 
   393     1F4E                     	;# 
   394     1F4F                     	;# 
   395     1F50                     	;# 
   396     1F51                     	;# 
   397     1F52                     	;# 
   398     1F53                     	;# 
   399     1F54                     	;# 
   400     1F55                     	;# 
   401     1FE4                     	;# 
   402     1FE5                     	;# 
   403     1FE6                     	;# 
   404     1FE7                     	;# 
   405     1FE8                     	;# 
   406     1FE8                     	;# 
   407     1FE9                     	;# 
   408     1FEA                     	;# 
   409     1FEB                     	;# 
   410     1FED                     	;# 
   411     1FEE                     	;# 
   412     1FEF                     	;# 
   413     0000                     	;# 
   414     0001                     	;# 
   415     0002                     	;# 
   416     0003                     	;# 
   417     0004                     	;# 
   418     0005                     	;# 
   419     0006                     	;# 
   420     0007                     	;# 
   421     0008                     	;# 
   422     0009                     	;# 
   423     000A                     	;# 
   424     000B                     	;# 
   425     000C                     	;# 
   426     000E                     	;# 
   427     0012                     	;# 
   428     0014                     	;# 
   429     0018                     	;# 
   430     001A                     	;# 
   431     009A                     	;# 
   432     009B                     	;# 
   433     009B                     	;# 
   434     009C                     	;# 
   435     009D                     	;# 
   436     009E                     	;# 
   437     009F                     	;# 
   438     010E                     	;# 
   439     010F                     	;# 
   440     0119                     	;# 
   441     011A                     	;# 
   442     011B                     	;# 
   443     011B                     	;# 
   444     011C                     	;# 
   445     011D                     	;# 
   446     011E                     	;# 
   447     011F                     	;# 
   448     018C                     	;# 
   449     018D                     	;# 
   450     018E                     	;# 
   451     018F                     	;# 
   452     0190                     	;# 
   453     0191                     	;# 
   454     0192                     	;# 
   455     020C                     	;# 
   456     020D                     	;# 
   457     020E                     	;# 
   458     020E                     	;# 
   459     020F                     	;# 
   460     020F                     	;# 
   461     0210                     	;# 
   462     0210                     	;# 
   463     0211                     	;# 
   464     0211                     	;# 
   465     028C                     	;# 
   466     028C                     	;# 
   467     028D                     	;# 
   468     028D                     	;# 
   469     028E                     	;# 
   470     028F                     	;# 
   471     0290                     	;# 
   472     0291                     	;# 
   473     030C                     	;# 
   474     030C                     	;# 
   475     030D                     	;# 
   476     030E                     	;# 
   477     030F                     	;# 
   478     0310                     	;# 
   479     0310                     	;# 
   480     0311                     	;# 
   481     0312                     	;# 
   482     0313                     	;# 
   483     0314                     	;# 
   484     0314                     	;# 
   485     0315                     	;# 
   486     0316                     	;# 
   487     0318                     	;# 
   488     0318                     	;# 
   489     0319                     	;# 
   490     031A                     	;# 
   491     059C                     	;# 
   492     059C                     	;# 
   493     059D                     	;# 
   494     059D                     	;# 
   495     059E                     	;# 
   496     059F                     	;# 
   497     070C                     	;# 
   498     070D                     	;# 
   499     070E                     	;# 
   500     0716                     	;# 
   501     0717                     	;# 
   502     0718                     	;# 
   503     080C                     	;# 
   504     0811                     	;# 
   505     0813                     	;# 
   506     0814                     	;# 
   507     081A                     	;# 
   508     081A                     	;# 
   509     081B                     	;# 
   510     081C                     	;# 
   511     081C                     	;# 
   512     081D                     	;# 
   513     081E                     	;# 
   514     081F                     	;# 
   515     088E                     	;# 
   516     0890                     	;# 
   517     0891                     	;# 
   518     0892                     	;# 
   519     0893                     	;# 
   520     090C                     	;# 
   521     1E8F                     	;# 
   522     1E90                     	;# 
   523     1E91                     	;# 
   524     1E92                     	;# 
   525     1E93                     	;# 
   526     1E9C                     	;# 
   527     1EA1                     	;# 
   528     1EA2                     	;# 
   529     1EC3                     	;# 
   530     1EC5                     	;# 
   531     1EC6                     	;# 
   532     1EC7                     	;# 
   533     1ECB                     	;# 
   534     1ECB                     	;# 
   535     1ECB                     	;# 
   536     1ECC                     	;# 
   537     1ECC                     	;# 
   538     1ECC                     	;# 
   539     1F10                     	;# 
   540     1F11                     	;# 
   541     1F12                     	;# 
   542     1F14                     	;# 
   543     1F15                     	;# 
   544     1F20                     	;# 
   545     1F21                     	;# 
   546     1F22                     	;# 
   547     1F23                     	;# 
   548     1F24                     	;# 
   549     1F25                     	;# 
   550     1F38                     	;# 
   551     1F39                     	;# 
   552     1F3A                     	;# 
   553     1F3B                     	;# 
   554     1F3C                     	;# 
   555     1F3D                     	;# 
   556     1F3E                     	;# 
   557     1F3F                     	;# 
   558     1F4E                     	;# 
   559     1F4F                     	;# 
   560     1F50                     	;# 
   561     1F51                     	;# 
   562     1F52                     	;# 
   563     1F53                     	;# 
   564     1F54                     	;# 
   565     1F55                     	;# 
   566     1FE4                     	;# 
   567     1FE5                     	;# 
   568     1FE6                     	;# 
   569     1FE7                     	;# 
   570     1FE8                     	;# 
   571     1FE8                     	;# 
   572     1FE9                     	;# 
   573     1FEA                     	;# 
   574     1FEB                     	;# 
   575     1FED                     	;# 
   576     1FEE                     	;# 
   577     1FEF                     	;# 
   578     0000                     	;# 
   579     0001                     	;# 
   580     0002                     	;# 
   581     0003                     	;# 
   582     0004                     	;# 
   583     0005                     	;# 
   584     0006                     	;# 
   585     0007                     	;# 
   586     0008                     	;# 
   587     0009                     	;# 
   588     000A                     	;# 
   589     000B                     	;# 
   590     000C                     	;# 
   591     000E                     	;# 
   592     0012                     	;# 
   593     0014                     	;# 
   594     0018                     	;# 
   595     001A                     	;# 
   596     009A                     	;# 
   597     009B                     	;# 
   598     009B                     	;# 
   599     009C                     	;# 
   600     009D                     	;# 
   601     009E                     	;# 
   602     009F                     	;# 
   603     010E                     	;# 
   604     010F                     	;# 
   605     0119                     	;# 
   606     011A                     	;# 
   607     011B                     	;# 
   608     011B                     	;# 
   609     011C                     	;# 
   610     011D                     	;# 
   611     011E                     	;# 
   612     011F                     	;# 
   613     018C                     	;# 
   614     018D                     	;# 
   615     018E                     	;# 
   616     018F                     	;# 
   617     0190                     	;# 
   618     0191                     	;# 
   619     0192                     	;# 
   620     020C                     	;# 
   621     020D                     	;# 
   622     020E                     	;# 
   623     020E                     	;# 
   624     020F                     	;# 
   625     020F                     	;# 
   626     0210                     	;# 
   627     0210                     	;# 
   628     0211                     	;# 
   629     0211                     	;# 
   630     028C                     	;# 
   631     028C                     	;# 
   632     028D                     	;# 
   633     028D                     	;# 
   634     028E                     	;# 
   635     028F                     	;# 
   636     0290                     	;# 
   637     0291                     	;# 
   638     030C                     	;# 
   639     030C                     	;# 
   640     030D                     	;# 
   641     030E                     	;# 
   642     030F                     	;# 
   643     0310                     	;# 
   644     0310                     	;# 
   645     0311                     	;# 
   646     0312                     	;# 
   647     0313                     	;# 
   648     0314                     	;# 
   649     0314                     	;# 
   650     0315                     	;# 
   651     0316                     	;# 
   652     0318                     	;# 
   653     0318                     	;# 
   654     0319                     	;# 
   655     031A                     	;# 
   656     059C                     	;# 
   657     059C                     	;# 
   658     059D                     	;# 
   659     059D                     	;# 
   660     059E                     	;# 
   661     059F                     	;# 
   662     070C                     	;# 
   663     070D                     	;# 
   664     070E                     	;# 
   665     0716                     	;# 
   666     0717                     	;# 
   667     0718                     	;# 
   668     080C                     	;# 
   669     0811                     	;# 
   670     0813                     	;# 
   671     0814                     	;# 
   672     081A                     	;# 
   673     081A                     	;# 
   674     081B                     	;# 
   675     081C                     	;# 
   676     081C                     	;# 
   677     081D                     	;# 
   678     081E                     	;# 
   679     081F                     	;# 
   680     088E                     	;# 
   681     0890                     	;# 
   682     0891                     	;# 
   683     0892                     	;# 
   684     0893                     	;# 
   685     090C                     	;# 
   686     1E8F                     	;# 
   687     1E90                     	;# 
   688     1E91                     	;# 
   689     1E92                     	;# 
   690     1E93                     	;# 
   691     1E9C                     	;# 
   692     1EA1                     	;# 
   693     1EA2                     	;# 
   694     1EC3                     	;# 
   695     1EC5                     	;# 
   696     1EC6                     	;# 
   697     1EC7                     	;# 
   698     1ECB                     	;# 
   699     1ECB                     	;# 
   700     1ECB                     	;# 
   701     1ECC                     	;# 
   702     1ECC                     	;# 
   703     1ECC                     	;# 
   704     1F10                     	;# 
   705     1F11                     	;# 
   706     1F12                     	;# 
   707     1F14                     	;# 
   708     1F15                     	;# 
   709     1F20                     	;# 
   710     1F21                     	;# 
   711     1F22                     	;# 
   712     1F23                     	;# 
   713     1F24                     	;# 
   714     1F25                     	;# 
   715     1F38                     	;# 
   716     1F39                     	;# 
   717     1F3A                     	;# 
   718     1F3B                     	;# 
   719     1F3C                     	;# 
   720     1F3D                     	;# 
   721     1F3E                     	;# 
   722     1F3F                     	;# 
   723     1F4E                     	;# 
   724     1F4F                     	;# 
   725     1F50                     	;# 
   726     1F51                     	;# 
   727     1F52                     	;# 
   728     1F53                     	;# 
   729     1F54                     	;# 
   730     1F55                     	;# 
   731     1FE4                     	;# 
   732     1FE5                     	;# 
   733     1FE6                     	;# 
   734     1FE7                     	;# 
   735     1FE8                     	;# 
   736     1FE8                     	;# 
   737     1FE9                     	;# 
   738     1FEA                     	;# 
   739     1FEB                     	;# 
   740     1FED                     	;# 
   741     1FEE                     	;# 
   742     1FEF                     	;# 
   743     0000                     	;# 
   744     0001                     	;# 
   745     0002                     	;# 
   746     0003                     	;# 
   747     0004                     	;# 
   748     0005                     	;# 
   749     0006                     	;# 
   750     0007                     	;# 
   751     0008                     	;# 
   752     0009                     	;# 
   753     000A                     	;# 
   754     000B                     	;# 
   755     000C                     	;# 
   756     000E                     	;# 
   757     0012                     	;# 
   758     0014                     	;# 
   759     0018                     	;# 
   760     001A                     	;# 
   761     009A                     	;# 
   762     009B                     	;# 
   763     009B                     	;# 
   764     009C                     	;# 
   765     009D                     	;# 
   766     009E                     	;# 
   767     009F                     	;# 
   768     010E                     	;# 
   769     010F                     	;# 
   770     0119                     	;# 
   771     011A                     	;# 
   772     011B                     	;# 
   773     011B                     	;# 
   774     011C                     	;# 
   775     011D                     	;# 
   776     011E                     	;# 
   777     011F                     	;# 
   778     018C                     	;# 
   779     018D                     	;# 
   780     018E                     	;# 
   781     018F                     	;# 
   782     0190                     	;# 
   783     0191                     	;# 
   784     0192                     	;# 
   785     020C                     	;# 
   786     020D                     	;# 
   787     020E                     	;# 
   788     020E                     	;# 
   789     020F                     	;# 
   790     020F                     	;# 
   791     0210                     	;# 
   792     0210                     	;# 
   793     0211                     	;# 
   794     0211                     	;# 
   795     028C                     	;# 
   796     028C                     	;# 
   797     028D                     	;# 
   798     028D                     	;# 
   799     028E                     	;# 
   800     028F                     	;# 
   801     0290                     	;# 
   802     0291                     	;# 
   803     030C                     	;# 
   804     030C                     	;# 
   805     030D                     	;# 
   806     030E                     	;# 
   807     030F                     	;# 
   808     0310                     	;# 
   809     0310                     	;# 
   810     0311                     	;# 
   811     0312                     	;# 
   812     0313                     	;# 
   813     0314                     	;# 
   814     0314                     	;# 
   815     0315                     	;# 
   816     0316                     	;# 
   817     0318                     	;# 
   818     0318                     	;# 
   819     0319                     	;# 
   820     031A                     	;# 
   821     059C                     	;# 
   822     059C                     	;# 
   823     059D                     	;# 
   824     059D                     	;# 
   825     059E                     	;# 
   826     059F                     	;# 
   827     070C                     	;# 
   828     070D                     	;# 
   829     070E                     	;# 
   830     0716                     	;# 
   831     0717                     	;# 
   832     0718                     	;# 
   833     080C                     	;# 
   834     0811                     	;# 
   835     0813                     	;# 
   836     0814                     	;# 
   837     081A                     	;# 
   838     081A                     	;# 
   839     081B                     	;# 
   840     081C                     	;# 
   841     081C                     	;# 
   842     081D                     	;# 
   843     081E                     	;# 
   844     081F                     	;# 
   845     088E                     	;# 
   846     0890                     	;# 
   847     0891                     	;# 
   848     0892                     	;# 
   849     0893                     	;# 
   850     090C                     	;# 
   851     1E8F                     	;# 
   852     1E90                     	;# 
   853     1E91                     	;# 
   854     1E92                     	;# 
   855     1E93                     	;# 
   856     1E9C                     	;# 
   857     1EA1                     	;# 
   858     1EA2                     	;# 
   859     1EC3                     	;# 
   860     1EC5                     	;# 
   861     1EC6                     	;# 
   862     1EC7                     	;# 
   863     1ECB                     	;# 
   864     1ECB                     	;# 
   865     1ECB                     	;# 
   866     1ECC                     	;# 
   867     1ECC                     	;# 
   868     1ECC                     	;# 
   869     1F10                     	;# 
   870     1F11                     	;# 
   871     1F12                     	;# 
   872     1F14                     	;# 
   873     1F15                     	;# 
   874     1F20                     	;# 
   875     1F21                     	;# 
   876     1F22                     	;# 
   877     1F23                     	;# 
   878     1F24                     	;# 
   879     1F25                     	;# 
   880     1F38                     	;# 
   881     1F39                     	;# 
   882     1F3A                     	;# 
   883     1F3B                     	;# 
   884     1F3C                     	;# 
   885     1F3D                     	;# 
   886     1F3E                     	;# 
   887     1F3F                     	;# 
   888     1F4E                     	;# 
   889     1F4F                     	;# 
   890     1F50                     	;# 
   891     1F51                     	;# 
   892     1F52                     	;# 
   893     1F53                     	;# 
   894     1F54                     	;# 
   895     1F55                     	;# 
   896     1FE4                     	;# 
   897     1FE5                     	;# 
   898     1FE6                     	;# 
   899     1FE7                     	;# 
   900     1FE8                     	;# 
   901     1FE8                     	;# 
   902     1FE9                     	;# 
   903     1FEA                     	;# 
   904     1FEB                     	;# 
   905     1FED                     	;# 
   906     1FEE                     	;# 
   907     1FEF                     	;# 
   908     0000                     	;# 
   909     0001                     	;# 
   910     0002                     	;# 
   911     0003                     	;# 
   912     0004                     	;# 
   913     0005                     	;# 
   914     0006                     	;# 
   915     0007                     	;# 
   916     0008                     	;# 
   917     0009                     	;# 
   918     000A                     	;# 
   919     000B                     	;# 
   920     000C                     	;# 
   921     000E                     	;# 
   922     0012                     	;# 
   923     0014                     	;# 
   924     0018                     	;# 
   925     001A                     	;# 
   926     009A                     	;# 
   927     009B                     	;# 
   928     009B                     	;# 
   929     009C                     	;# 
   930     009D                     	;# 
   931     009E                     	;# 
   932     009F                     	;# 
   933     010E                     	;# 
   934     010F                     	;# 
   935     0119                     	;# 
   936     011A                     	;# 
   937     011B                     	;# 
   938     011B                     	;# 
   939     011C                     	;# 
   940     011D                     	;# 
   941     011E                     	;# 
   942     011F                     	;# 
   943     018C                     	;# 
   944     018D                     	;# 
   945     018E                     	;# 
   946     018F                     	;# 
   947     0190                     	;# 
   948     0191                     	;# 
   949     0192                     	;# 
   950     020C                     	;# 
   951     020D                     	;# 
   952     020E                     	;# 
   953     020E                     	;# 
   954     020F                     	;# 
   955     020F                     	;# 
   956     0210                     	;# 
   957     0210                     	;# 
   958     0211                     	;# 
   959     0211                     	;# 
   960     028C                     	;# 
   961     028C                     	;# 
   962     028D                     	;# 
   963     028D                     	;# 
   964     028E                     	;# 
   965     028F                     	;# 
   966     0290                     	;# 
   967     0291                     	;# 
   968     030C                     	;# 
   969     030C                     	;# 
   970     030D                     	;# 
   971     030E                     	;# 
   972     030F                     	;# 
   973     0310                     	;# 
   974     0310                     	;# 
   975     0311                     	;# 
   976     0312                     	;# 
   977     0313                     	;# 
   978     0314                     	;# 
   979     0314                     	;# 
   980     0315                     	;# 
   981     0316                     	;# 
   982     0318                     	;# 
   983     0318                     	;# 
   984     0319                     	;# 
   985     031A                     	;# 
   986     059C                     	;# 
   987     059C                     	;# 
   988     059D                     	;# 
   989     059D                     	;# 
   990     059E                     	;# 
   991     059F                     	;# 
   992     070C                     	;# 
   993     070D                     	;# 
   994     070E                     	;# 
   995     0716                     	;# 
   996     0717                     	;# 
   997     0718                     	;# 
   998     080C                     	;# 
   999     0811                     	;# 
  1000     0813                     	;# 
  1001     0814                     	;# 
  1002     081A                     	;# 
  1003     081A                     	;# 
  1004     081B                     	;# 
  1005     081C                     	;# 
  1006     081C                     	;# 
  1007     081D                     	;# 
  1008     081E                     	;# 
  1009     081F                     	;# 
  1010     088E                     	;# 
  1011     0890                     	;# 
  1012     0891                     	;# 
  1013     0892                     	;# 
  1014     0893                     	;# 
  1015     090C                     	;# 
  1016     1E8F                     	;# 
  1017     1E90                     	;# 
  1018     1E91                     	;# 
  1019     1E92                     	;# 
  1020     1E93                     	;# 
  1021     1E9C                     	;# 
  1022     1EA1                     	;# 
  1023     1EA2                     	;# 
  1024     1EC3                     	;# 
  1025     1EC5                     	;# 
  1026     1EC6                     	;# 
  1027     1EC7                     	;# 
  1028     1ECB                     	;# 
  1029     1ECB                     	;# 
  1030     1ECB                     	;# 
  1031     1ECC                     	;# 
  1032     1ECC                     	;# 
  1033     1ECC                     	;# 
  1034     1F10                     	;# 
  1035     1F11                     	;# 
  1036     1F12                     	;# 
  1037     1F14                     	;# 
  1038     1F15                     	;# 
  1039     1F20                     	;# 
  1040     1F21                     	;# 
  1041     1F22                     	;# 
  1042     1F23                     	;# 
  1043     1F24                     	;# 
  1044     1F25                     	;# 
  1045     1F38                     	;# 
  1046     1F39                     	;# 
  1047     1F3A                     	;# 
  1048     1F3B                     	;# 
  1049     1F3C                     	;# 
  1050     1F3D                     	;# 
  1051     1F3E                     	;# 
  1052     1F3F                     	;# 
  1053     1F4E                     	;# 
  1054     1F4F                     	;# 
  1055     1F50                     	;# 
  1056     1F51                     	;# 
  1057     1F52                     	;# 
  1058     1F53                     	;# 
  1059     1F54                     	;# 
  1060     1F55                     	;# 
  1061     1FE4                     	;# 
  1062     1FE5                     	;# 
  1063     1FE6                     	;# 
  1064     1FE7                     	;# 
  1065     1FE8                     	;# 
  1066     1FE8                     	;# 
  1067     1FE9                     	;# 
  1068     1FEA                     	;# 
  1069     1FEB                     	;# 
  1070     1FED                     	;# 
  1071     1FEE                     	;# 
  1072     1FEF                     	;# 
  1073     0000                     	;# 
  1074     0001                     	;# 
  1075     0002                     	;# 
  1076     0003                     	;# 
  1077     0004                     	;# 
  1078     0005                     	;# 
  1079     0006                     	;# 
  1080     0007                     	;# 
  1081     0008                     	;# 
  1082     0009                     	;# 
  1083     000A                     	;# 
  1084     000B                     	;# 
  1085     000C                     	;# 
  1086     000E                     	;# 
  1087     0012                     	;# 
  1088     0014                     	;# 
  1089     0018                     	;# 
  1090     001A                     	;# 
  1091     009A                     	;# 
  1092     009B                     	;# 
  1093     009B                     	;# 
  1094     009C                     	;# 
  1095     009D                     	;# 
  1096     009E                     	;# 
  1097     009F                     	;# 
  1098     010E                     	;# 
  1099     010F                     	;# 
  1100     0119                     	;# 
  1101     011A                     	;# 
  1102     011B                     	;# 
  1103     011B                     	;# 
  1104     011C                     	;# 
  1105     011D                     	;# 
  1106     011E                     	;# 
  1107     011F                     	;# 
  1108     018C                     	;# 
  1109     018D                     	;# 
  1110     018E                     	;# 
  1111     018F                     	;# 
  1112     0190                     	;# 
  1113     0191                     	;# 
  1114     0192                     	;# 
  1115     020C                     	;# 
  1116     020D                     	;# 
  1117     020E                     	;# 
  1118     020E                     	;# 
  1119     020F                     	;# 
  1120     020F                     	;# 
  1121     0210                     	;# 
  1122     0210                     	;# 
  1123     0211                     	;# 
  1124     0211                     	;# 
  1125     028C                     	;# 
  1126     028C                     	;# 
  1127     028D                     	;# 
  1128     028D                     	;# 
  1129     028E                     	;# 
  1130     028F                     	;# 
  1131     0290                     	;# 
  1132     0291                     	;# 
  1133     030C                     	;# 
  1134     030C                     	;# 
  1135     030D                     	;# 
  1136     030E                     	;# 
  1137     030F                     	;# 
  1138     0310                     	;# 
  1139     0310                     	;# 
  1140     0311                     	;# 
  1141     0312                     	;# 
  1142     0313                     	;# 
  1143     0314                     	;# 
  1144     0314                     	;# 
  1145     0315                     	;# 
  1146     0316                     	;# 
  1147     0318                     	;# 
  1148     0318                     	;# 
  1149     0319                     	;# 
  1150     031A                     	;# 
  1151     059C                     	;# 
  1152     059C                     	;# 
  1153     059D                     	;# 
  1154     059D                     	;# 
  1155     059E                     	;# 
  1156     059F                     	;# 
  1157     070C                     	;# 
  1158     070D                     	;# 
  1159     070E                     	;# 
  1160     0716                     	;# 
  1161     0717                     	;# 
  1162     0718                     	;# 
  1163     080C                     	;# 
  1164     0811                     	;# 
  1165     0813                     	;# 
  1166     0814                     	;# 
  1167     081A                     	;# 
  1168     081A                     	;# 
  1169     081B                     	;# 
  1170     081C                     	;# 
  1171     081C                     	;# 
  1172     081D                     	;# 
  1173     081E                     	;# 
  1174     081F                     	;# 
  1175     088E                     	;# 
  1176     0890                     	;# 
  1177     0891                     	;# 
  1178     0892                     	;# 
  1179     0893                     	;# 
  1180     090C                     	;# 
  1181     1E8F                     	;# 
  1182     1E90                     	;# 
  1183     1E91                     	;# 
  1184     1E92                     	;# 
  1185     1E93                     	;# 
  1186     1E9C                     	;# 
  1187     1EA1                     	;# 
  1188     1EA2                     	;# 
  1189     1EC3                     	;# 
  1190     1EC5                     	;# 
  1191     1EC6                     	;# 
  1192     1EC7                     	;# 
  1193     1ECB                     	;# 
  1194     1ECB                     	;# 
  1195     1ECB                     	;# 
  1196     1ECC                     	;# 
  1197     1ECC                     	;# 
  1198     1ECC                     	;# 
  1199     1F10                     	;# 
  1200     1F11                     	;# 
  1201     1F12                     	;# 
  1202     1F14                     	;# 
  1203     1F15                     	;# 
  1204     1F20                     	;# 
  1205     1F21                     	;# 
  1206     1F22                     	;# 
  1207     1F23                     	;# 
  1208     1F24                     	;# 
  1209     1F25                     	;# 
  1210     1F38                     	;# 
  1211     1F39                     	;# 
  1212     1F3A                     	;# 
  1213     1F3B                     	;# 
  1214     1F3C                     	;# 
  1215     1F3D                     	;# 
  1216     1F3E                     	;# 
  1217     1F3F                     	;# 
  1218     1F4E                     	;# 
  1219     1F4F                     	;# 
  1220     1F50                     	;# 
  1221     1F51                     	;# 
  1222     1F52                     	;# 
  1223     1F53                     	;# 
  1224     1F54                     	;# 
  1225     1F55                     	;# 
  1226     1FE4                     	;# 
  1227     1FE5                     	;# 
  1228     1FE6                     	;# 
  1229     1FE7                     	;# 
  1230     1FE8                     	;# 
  1231     1FE8                     	;# 
  1232     1FE9                     	;# 
  1233     1FEA                     	;# 
  1234     1FEB                     	;# 
  1235     1FED                     	;# 
  1236     1FEE                     	;# 
  1237     1FEF                     	;# 
  1238     0000                     	;# 
  1239     0001                     	;# 
  1240     0002                     	;# 
  1241     0003                     	;# 
  1242     0004                     	;# 
  1243     0005                     	;# 
  1244     0006                     	;# 
  1245     0007                     	;# 
  1246     0008                     	;# 
  1247     0009                     	;# 
  1248     000A                     	;# 
  1249     000B                     	;# 
  1250     000C                     	;# 
  1251     000E                     	;# 
  1252     0012                     	;# 
  1253     0014                     	;# 
  1254     0018                     	;# 
  1255     001A                     	;# 
  1256     009A                     	;# 
  1257     009B                     	;# 
  1258     009B                     	;# 
  1259     009C                     	;# 
  1260     009D                     	;# 
  1261     009E                     	;# 
  1262     009F                     	;# 
  1263     010E                     	;# 
  1264     010F                     	;# 
  1265     0119                     	;# 
  1266     011A                     	;# 
  1267     011B                     	;# 
  1268     011B                     	;# 
  1269     011C                     	;# 
  1270     011D                     	;# 
  1271     011E                     	;# 
  1272     011F                     	;# 
  1273     018C                     	;# 
  1274     018D                     	;# 
  1275     018E                     	;# 
  1276     018F                     	;# 
  1277     0190                     	;# 
  1278     0191                     	;# 
  1279     0192                     	;# 
  1280     020C                     	;# 
  1281     020D                     	;# 
  1282     020E                     	;# 
  1283     020E                     	;# 
  1284     020F                     	;# 
  1285     020F                     	;# 
  1286     0210                     	;# 
  1287     0210                     	;# 
  1288     0211                     	;# 
  1289     0211                     	;# 
  1290     028C                     	;# 
  1291     028C                     	;# 
  1292     028D                     	;# 
  1293     028D                     	;# 
  1294     028E                     	;# 
  1295     028F                     	;# 
  1296     0290                     	;# 
  1297     0291                     	;# 
  1298     030C                     	;# 
  1299     030C                     	;# 
  1300     030D                     	;# 
  1301     030E                     	;# 
  1302     030F                     	;# 
  1303     0310                     	;# 
  1304     0310                     	;# 
  1305     0311                     	;# 
  1306     0312                     	;# 
  1307     0313                     	;# 
  1308     0314                     	;# 
  1309     0314                     	;# 
  1310     0315                     	;# 
  1311     0316                     	;# 
  1312     0318                     	;# 
  1313     0318                     	;# 
  1314     0319                     	;# 
  1315     031A                     	;# 
  1316     059C                     	;# 
  1317     059C                     	;# 
  1318     059D                     	;# 
  1319     059D                     	;# 
  1320     059E                     	;# 
  1321     059F                     	;# 
  1322     070C                     	;# 
  1323     070D                     	;# 
  1324     070E                     	;# 
  1325     0716                     	;# 
  1326     0717                     	;# 
  1327     0718                     	;# 
  1328     080C                     	;# 
  1329     0811                     	;# 
  1330     0813                     	;# 
  1331     0814                     	;# 
  1332     081A                     	;# 
  1333     081A                     	;# 
  1334     081B                     	;# 
  1335     081C                     	;# 
  1336     081C                     	;# 
  1337     081D                     	;# 
  1338     081E                     	;# 
  1339     081F                     	;# 
  1340     088E                     	;# 
  1341     0890                     	;# 
  1342     0891                     	;# 
  1343     0892                     	;# 
  1344     0893                     	;# 
  1345     090C                     	;# 
  1346     1E8F                     	;# 
  1347     1E90                     	;# 
  1348     1E91                     	;# 
  1349     1E92                     	;# 
  1350     1E93                     	;# 
  1351     1E9C                     	;# 
  1352     1EA1                     	;# 
  1353     1EA2                     	;# 
  1354     1EC3                     	;# 
  1355     1EC5                     	;# 
  1356     1EC6                     	;# 
  1357     1EC7                     	;# 
  1358     1ECB                     	;# 
  1359     1ECB                     	;# 
  1360     1ECB                     	;# 
  1361     1ECC                     	;# 
  1362     1ECC                     	;# 
  1363     1ECC                     	;# 
  1364     1F10                     	;# 
  1365     1F11                     	;# 
  1366     1F12                     	;# 
  1367     1F14                     	;# 
  1368     1F15                     	;# 
  1369     1F20                     	;# 
  1370     1F21                     	;# 
  1371     1F22                     	;# 
  1372     1F23                     	;# 
  1373     1F24                     	;# 
  1374     1F25                     	;# 
  1375     1F38                     	;# 
  1376     1F39                     	;# 
  1377     1F3A                     	;# 
  1378     1F3B                     	;# 
  1379     1F3C                     	;# 
  1380     1F3D                     	;# 
  1381     1F3E                     	;# 
  1382     1F3F                     	;# 
  1383     1F4E                     	;# 
  1384     1F4F                     	;# 
  1385     1F50                     	;# 
  1386     1F51                     	;# 
  1387     1F52                     	;# 
  1388     1F53                     	;# 
  1389     1F54                     	;# 
  1390     1F55                     	;# 
  1391     1FE4                     	;# 
  1392     1FE5                     	;# 
  1393     1FE6                     	;# 
  1394     1FE7                     	;# 
  1395     1FE8                     	;# 
  1396     1FE8                     	;# 
  1397     1FE9                     	;# 
  1398     1FEA                     	;# 
  1399     1FEB                     	;# 
  1400     1FED                     	;# 
  1401     1FEE                     	;# 
  1402     1FEF                     	;# 
  1403     0000                     	;# 
  1404     0001                     	;# 
  1405     0002                     	;# 
  1406     0003                     	;# 
  1407     0004                     	;# 
  1408     0005                     	;# 
  1409     0006                     	;# 
  1410     0007                     	;# 
  1411     0008                     	;# 
  1412     0009                     	;# 
  1413     000A                     	;# 
  1414     000B                     	;# 
  1415     000C                     	;# 
  1416     000E                     	;# 
  1417     0012                     	;# 
  1418     0014                     	;# 
  1419     0018                     	;# 
  1420     001A                     	;# 
  1421     009A                     	;# 
  1422     009B                     	;# 
  1423     009B                     	;# 
  1424     009C                     	;# 
  1425     009D                     	;# 
  1426     009E                     	;# 
  1427     009F                     	;# 
  1428     010E                     	;# 
  1429     010F                     	;# 
  1430     0119                     	;# 
  1431     011A                     	;# 
  1432     011B                     	;# 
  1433     011B                     	;# 
  1434     011C                     	;# 
  1435     011D                     	;# 
  1436     011E                     	;# 
  1437     011F                     	;# 
  1438     018C                     	;# 
  1439     018D                     	;# 
  1440     018E                     	;# 
  1441     018F                     	;# 
  1442     0190                     	;# 
  1443     0191                     	;# 
  1444     0192                     	;# 
  1445     020C                     	;# 
  1446     020D                     	;# 
  1447     020E                     	;# 
  1448     020E                     	;# 
  1449     020F                     	;# 
  1450     020F                     	;# 
  1451     0210                     	;# 
  1452     0210                     	;# 
  1453     0211                     	;# 
  1454     0211                     	;# 
  1455     028C                     	;# 
  1456     028C                     	;# 
  1457     028D                     	;# 
  1458     028D                     	;# 
  1459     028E                     	;# 
  1460     028F                     	;# 
  1461     0290                     	;# 
  1462     0291                     	;# 
  1463     030C                     	;# 
  1464     030C                     	;# 
  1465     030D                     	;# 
  1466     030E                     	;# 
  1467     030F                     	;# 
  1468     0310                     	;# 
  1469     0310                     	;# 
  1470     0311                     	;# 
  1471     0312                     	;# 
  1472     0313                     	;# 
  1473     0314                     	;# 
  1474     0314                     	;# 
  1475     0315                     	;# 
  1476     0316                     	;# 
  1477     0318                     	;# 
  1478     0318                     	;# 
  1479     0319                     	;# 
  1480     031A                     	;# 
  1481     059C                     	;# 
  1482     059C                     	;# 
  1483     059D                     	;# 
  1484     059D                     	;# 
  1485     059E                     	;# 
  1486     059F                     	;# 
  1487     070C                     	;# 
  1488     070D                     	;# 
  1489     070E                     	;# 
  1490     0716                     	;# 
  1491     0717                     	;# 
  1492     0718                     	;# 
  1493     080C                     	;# 
  1494     0811                     	;# 
  1495     0813                     	;# 
  1496     0814                     	;# 
  1497     081A                     	;# 
  1498     081A                     	;# 
  1499     081B                     	;# 
  1500     081C                     	;# 
  1501     081C                     	;# 
  1502     081D                     	;# 
  1503     081E                     	;# 
  1504     081F                     	;# 
  1505     088E                     	;# 
  1506     0890                     	;# 
  1507     0891                     	;# 
  1508     0892                     	;# 
  1509     0893                     	;# 
  1510     090C                     	;# 
  1511     1E8F                     	;# 
  1512     1E90                     	;# 
  1513     1E91                     	;# 
  1514     1E92                     	;# 
  1515     1E93                     	;# 
  1516     1E9C                     	;# 
  1517     1EA1                     	;# 
  1518     1EA2                     	;# 
  1519     1EC3                     	;# 
  1520     1EC5                     	;# 
  1521     1EC6                     	;# 
  1522     1EC7                     	;# 
  1523     1ECB                     	;# 
  1524     1ECB                     	;# 
  1525     1ECB                     	;# 
  1526     1ECC                     	;# 
  1527     1ECC                     	;# 
  1528     1ECC                     	;# 
  1529     1F10                     	;# 
  1530     1F11                     	;# 
  1531     1F12                     	;# 
  1532     1F14                     	;# 
  1533     1F15                     	;# 
  1534     1F20                     	;# 
  1535     1F21                     	;# 
  1536     1F22                     	;# 
  1537     1F23                     	;# 
  1538     1F24                     	;# 
  1539     1F25                     	;# 
  1540     1F38                     	;# 
  1541     1F39                     	;# 
  1542     1F3A                     	;# 
  1543     1F3B                     	;# 
  1544     1F3C                     	;# 
  1545     1F3D                     	;# 
  1546     1F3E                     	;# 
  1547     1F3F                     	;# 
  1548     1F4E                     	;# 
  1549     1F4F                     	;# 
  1550     1F50                     	;# 
  1551     1F51                     	;# 
  1552     1F52                     	;# 
  1553     1F53                     	;# 
  1554     1F54                     	;# 
  1555     1F55                     	;# 
  1556     1FE4                     	;# 
  1557     1FE5                     	;# 
  1558     1FE6                     	;# 
  1559     1FE7                     	;# 
  1560     1FE8                     	;# 
  1561     1FE8                     	;# 
  1562     1FE9                     	;# 
  1563     1FEA                     	;# 
  1564     1FEB                     	;# 
  1565     1FED                     	;# 
  1566     1FEE                     	;# 
  1567     1FEF                     	;# 
  1568                           
  1569 ;; Function _I2C1_SlaveDefWrColInterruptHandler is unused but had its address taken
  1570     0000                     
  1571 ;; Function _I2C1_SlaveDefBusColInterruptHandler is unused but had its address taken
  1572     0000                     
  1573                           	psect	idataBANK1
  1574     0123                     __pidataBANK1:
  1575                           
  1576                           ;initializer for _dataBlock
  1577     0123  3455               	retlw	85
  1578     0124  3415               	retlw	21
  1579     0125  3401               	retlw	1
  1580     0126  3400               	retlw	0
  1581     0127  3402               	retlw	2
  1582     0128  3400               	retlw	0
  1583     0129  3403               	retlw	3
  1584     012A  3400               	retlw	0
  1585     012B  3404               	retlw	4
  1586     012C  3400               	retlw	0
  1587     012D  3405               	retlw	5
  1588     012E  3400               	retlw	0
  1589     012F  3406               	retlw	6
  1590     0130  3400               	retlw	0
  1591     0131  3407               	retlw	7
  1592     0132  3400               	retlw	0
  1593     0133  3408               	retlw	8
  1594     0134  3400               	retlw	0
  1595     0135  3409               	retlw	9
  1596     0136  3400               	retlw	0
  1597     0137  340A               	retlw	10
  1598     0138  3400               	retlw	0
  1599     0139  340B               	retlw	11
  1600     013A  3400               	retlw	0
  1601     013B  340C               	retlw	12
  1602     013C  3400               	retlw	0
  1603     013D  340D               	retlw	13
  1604     013E  3400               	retlw	0
  1605     013F  340D               	retlw	13
  1606     0140  3400               	retlw	0
  1607     0141  340F               	retlw	15
  1608     0142  3400               	retlw	0
  1609     0143  3410               	retlw	16
  1610     0144  3400               	retlw	0
  1611     0145  3411               	retlw	17
  1612     0146  3400               	retlw	0
  1613     0147  3412               	retlw	18
  1614     0148  3400               	retlw	0
  1615     0149  3413               	retlw	19
  1616     014A  3400               	retlw	0
  1617     014B  3414               	retlw	20
  1618     014C  3400               	retlw	0
  1619     014D  3415               	retlw	21
  1620     014E  3400               	retlw	0
  1621     014F  3416               	retlw	22
  1622     0150  3400               	retlw	0
  1623     0151  3417               	retlw	23
  1624     0152  3400               	retlw	0
  1625     0153  3418               	retlw	24
  1626     0154  3400               	retlw	0
  1627     0155  3419               	retlw	25
  1628     0156  3400               	retlw	0
  1629     0157  341A               	retlw	26
  1630     0158  3400               	retlw	0
  1631     0159  341B               	retlw	27
  1632     015A  3400               	retlw	0
  1633     015B  341C               	retlw	28
  1634     015C  3400               	retlw	0
  1635     015D  341D               	retlw	29
  1636     015E  3400               	retlw	0
  1637     015F  341E               	retlw	30
  1638     0160  3400               	retlw	0
  1639     0161  341F               	retlw	31
  1640     0162  3400               	retlw	0
  1641                           
  1642                           	psect	nvBANK0
  1643     003D                     __pnvBANK0:
  1644     003D                     _TMR0_InterruptHandler:
  1645     003D                     	ds	2
  1646     000C                     _PORTA	set	12
  1647     000E                     _PORTC	set	14
  1648     0018                     _LATAbits	set	24
  1649     000B                     _INTCONbits	set	11
  1650     0014                     _TRISC	set	20
  1651     0012                     _TRISA	set	18
  1652     001A                     _LATC	set	26
  1653     0018                     _LATA	set	24
  1654     018C                     _SSP1BUF	set	396
  1655     0191                     _SSP1CON2bits	set	401
  1656     018F                     _SSP1STATbits	set	399
  1657     018E                     _SSP1MSK	set	398
  1658     018D                     _SSP1ADD	set	397
  1659     0190                     _SSP1CON1bits	set	400
  1660     0191                     _SSP1CON2	set	401
  1661     0190                     _SSP1CON1	set	400
  1662     018F                     _SSP1STAT	set	399
  1663     059E                     _T0CON0bits	set	1438
  1664     059E                     _T0CON0	set	1438
  1665     059C                     _TMR0L	set	1436
  1666     059D                     _TMR0H	set	1437
  1667     059F                     _T0CON1	set	1439
  1668     070D                     _PIR1bits	set	1805
  1669     0717                     _PIE1bits	set	1815
  1670     070C                     _PIR0bits	set	1804
  1671     0716                     _PIE0bits	set	1814
  1672     080C                     _WDTCON	set	2060
  1673     081F                     _NVMCON2	set	2079
  1674     081C                     _NVMDATL	set	2076
  1675     081D                     _NVMDATH	set	2077
  1676     081E                     _NVMCON1bits	set	2078
  1677     081B                     _NVMADRH	set	2075
  1678     081A                     _NVMADRL	set	2074
  1679     0892                     _OSCTUNE	set	2194
  1680     0893                     _OSCFRQ	set	2195
  1681     0891                     _OSCEN	set	2193
  1682     1EC6                     _SSP1DATPPS	set	7878
  1683     1EC5                     _SSP1CLKPPS	set	7877
  1684     1F21                     _RC1PPS	set	7969
  1685     1F20                     _RC0PPS	set	7968
  1686     1F52                     _INLVLC	set	8018
  1687     1F3C                     _INLVLA	set	7996
  1688     1F51                     _SLRCONC	set	8017
  1689     1F3B                     _SLRCONA	set	7995
  1690     1F50                     _ODCONC	set	8016
  1691     1F3A                     _ODCONA	set	7994
  1692     1F4F                     _WPUC	set	8015
  1693     1F39                     _WPUA	set	7993
  1694     1F38                     _ANSELA	set	7992
  1695     1F4E                     _ANSELC	set	8014
  1696                           
  1697                           	psect	cinit
  1698     0032                     start_initialization:	
  1699                           ; #config settings
  1700                           
  1701     0032                     __initialization:
  1702                           
  1703                           ; Initialize objects allocated to BANK1
  1704     0032  3023               	movlw	low __pidataBANK1
  1705     0033  0084               	movwf	4
  1706     0034  3081               	movlw	(high __pidataBANK1)| (0+128)
  1707     0035  0085               	movwf	5
  1708     0036  30A0               	movlw	low __pdataBANK1
  1709     0037  0086               	movwf	6
  1710     0038  3000               	movlw	high __pdataBANK1
  1711     0039  0087               	movwf	7
  1712     003A  3040               	movlw	64
  1713     003B  3182  229F  3180   	fcall	init_ram
  1714                           
  1715                           ; Clear objects allocated to COMMON
  1716     003E  01F8               	clrf	__pbssCOMMON& (0+127)
  1717     003F  01F9               	clrf	(__pbssCOMMON+1)& (0+127)
  1718     0040  01FA               	clrf	(__pbssCOMMON+2)& (0+127)
  1719                           
  1720                           ; Clear objects allocated to BANK0
  1721     0041  302F               	movlw	low __pbssBANK0
  1722     0042  0084               	movwf	4
  1723     0043  3000               	movlw	high __pbssBANK0
  1724     0044  0085               	movwf	5
  1725     0045  300E               	movlw	14
  1726     0046  3182  22A5  3180   	fcall	clear_ram0
  1727     0049                     end_of_initialization:	
  1728                           ;End of C runtime variable initialization code
  1729                           
  1730     0049                     __end_of__initialization:
  1731     0049  107E               	bcf	int$flags,0	;clear compiler interrupt flag (level 1)
  1732     004A  0140               	movlb	0
  1733     004B  29B0               	ljmp	_main	;jump to C main() function
  1734                           
  1735                           	psect	bssCOMMON
  1736     0078                     __pbssCOMMON:
  1737     0078                     _i2c1SlaveState:
  1738     0078                     	ds	1
  1739     0079                     _i2c1WrData:
  1740     0079                     	ds	1
  1741     007A                     _LED_timer:
  1742     007A                     	ds	1
  1743                           
  1744                           	psect	bssBANK0
  1745     002F                     __pbssBANK0:
  1746     002F                     _I2C1_SlaveWrColInterruptHandler:
  1747     002F                     	ds	2
  1748     0031                     _I2C1_SlaveBusColInterruptHandler:
  1749     0031                     	ds	2
  1750     0033                     _I2C1_SlaveAddrInterruptHandler:
  1751     0033                     	ds	2
  1752     0035                     _I2C1_SlaveWrInterruptHandler:
  1753     0035                     	ds	2
  1754     0037                     _I2C1_SlaveRdInterruptHandler:
  1755     0037                     	ds	2
  1756     0039                     _MSSP1_InterruptHandler:
  1757     0039                     	ds	2
  1758     003B                     _i2c1SlaveAddr:
  1759     003B                     	ds	1
  1760     003C                     _i2c1RdData:
  1761     003C                     	ds	1
  1762                           
  1763                           	psect	dataBANK1
  1764     00A0                     __pdataBANK1:
  1765     00A0                     _dataBlock:
  1766     00A0                     	ds	64
  1767                           
  1768                           	psect	inittext
  1769     029F                     init_ram:
  1770     029F  00FE               	movwf	btemp
  1771     02A0                     initloop:
  1772     02A0  0012               	moviw fsr0++
  1773     02A1  001E               	movwi fsr1++
  1774     02A2  0BFE               	decfsz	btemp,f
  1775     02A3  2AA0               	goto	initloop
  1776     02A4  3400               	retlw	0
  1777                           
  1778                           	psect	clrtext
  1779     02A5                     clear_ram0:	
  1780                           ;	Called with FSR0 containing the base address, and
  1781                           ;	WREG with the size to clear
  1782                           
  1783     02A5  0064               	clrwdt	;clear the watchdog before getting into this loop
  1784     02A6                     clrloop0:
  1785     02A6  0180               	clrf	0	;clear RAM location pointed to by FSR
  1786     02A7  3101               	addfsr 0,1
  1787     02A8  0B89               	decfsz	9,f	;Have we reached the end of clearing yet?
  1788     02A9  2AA6               	goto	clrloop0	;have we reached the end yet?
  1789     02AA  3400               	retlw	0	;all done for this memory range, return
  1790                           
  1791                           	psect	cstackCOMMON
  1792     0070                     __pcstackCOMMON:
  1793     0070                     ?_TMR0_ISR:
  1794     0070                     ?_I2C1_Isr:	
  1795                           ; 1 bytes @ 0x0
  1796                           
  1797     0070                     ?_I2C1_SlaveDefWrInterruptHandler:	
  1798                           ; 1 bytes @ 0x0
  1799                           
  1800     0070                     ?_I2C1_SlaveDefRdInterruptHandler:	
  1801                           ; 1 bytes @ 0x0
  1802                           
  1803     0070                     ??_I2C1_SlaveDefRdInterruptHandler:	
  1804                           ; 1 bytes @ 0x0
  1805                           
  1806     0070                     ?_I2C1_SlaveDefAddrInterruptHandler:	
  1807                           ; 1 bytes @ 0x0
  1808                           
  1809     0070                     ??_I2C1_SlaveDefAddrInterruptHandler:	
  1810                           ; 1 bytes @ 0x0
  1811                           
  1812     0070                     ?_I2C1_SlaveGetRxData:	
  1813                           ; 1 bytes @ 0x0
  1814                           
  1815     0070                     ??_I2C1_SlaveGetRxData:	
  1816                           ; 1 bytes @ 0x0
  1817                           
  1818     0070                     ?_I2C1_SlaveSendTxData:	
  1819                           ; 1 bytes @ 0x0
  1820                           
  1821     0070                     ??_I2C1_SlaveSendTxData:	
  1822                           ; 1 bytes @ 0x0
  1823                           
  1824     0070                     ?_I2C1_SlaveIsRead:	
  1825                           ; 1 bytes @ 0x0
  1826                           
  1827     0070                     ??_I2C1_SlaveIsRead:	
  1828                           ; 1 bytes @ 0x0
  1829                           
  1830     0070                     ?_I2C1_SlaveClearIrq:	
  1831                           ; 1 bytes @ 0x0
  1832                           
  1833     0070                     ??_I2C1_SlaveClearIrq:	
  1834                           ; 1 bytes @ 0x0
  1835                           
  1836     0070                     ?_I2C1_SlaveIsAddr:	
  1837                           ; 1 bytes @ 0x0
  1838                           
  1839     0070                     ??_I2C1_SlaveIsAddr:	
  1840                           ; 1 bytes @ 0x0
  1841                           
  1842     0070                     ?_I2C1_SlaveAddrCallBack:	
  1843                           ; 1 bytes @ 0x0
  1844                           
  1845     0070                     ??_I2C1_SlaveAddrCallBack:	
  1846                           ; 1 bytes @ 0x0
  1847                           
  1848     0070                     ?_I2C1_SlaveIsTxBufEmpty:	
  1849                           ; 1 bytes @ 0x0
  1850                           
  1851     0070                     ??_I2C1_SlaveIsTxBufEmpty:	
  1852                           ; 1 bytes @ 0x0
  1853                           
  1854     0070                     ?_I2C1_SlaveWrCallBack:	
  1855                           ; 1 bytes @ 0x0
  1856                           
  1857     0070                     ?_I2C1_SlaveIsRxBufFull:	
  1858                           ; 1 bytes @ 0x0
  1859                           
  1860     0070                     ??_I2C1_SlaveIsRxBufFull:	
  1861                           ; 1 bytes @ 0x0
  1862                           
  1863     0070                     ?_I2C1_SlaveRdCallBack:	
  1864                           ; 1 bytes @ 0x0
  1865                           
  1866     0070                     ??_I2C1_SlaveRdCallBack:	
  1867                           ; 1 bytes @ 0x0
  1868                           
  1869     0070                     ?_I2C1_SlaveReleaseClock:	
  1870                           ; 1 bytes @ 0x0
  1871                           
  1872     0070                     ??_I2C1_SlaveReleaseClock:	
  1873                           ; 1 bytes @ 0x0
  1874                           
  1875     0070                     ?_TMR0_DefaultInterruptHandler:	
  1876                           ; 1 bytes @ 0x0
  1877                           
  1878     0070                     ??_TMR0_DefaultInterruptHandler:	
  1879                           ; 1 bytes @ 0x0
  1880                           
  1881     0070                     ?_OSCILLATOR_Initialize:	
  1882                           ; 1 bytes @ 0x0
  1883                           
  1884     0070                     ?_WDT_Initialize:	
  1885                           ; 1 bytes @ 0x0
  1886                           
  1887     0070                     ?_SensorBoardType_validation:	
  1888                           ; 1 bytes @ 0x0
  1889                           
  1890     0070                     ?_memory_initialize:	
  1891                           ; 1 bytes @ 0x0
  1892                           
  1893     0070                     ?_PIN_MANAGER_Initialize:	
  1894                           ; 1 bytes @ 0x0
  1895                           
  1896     0070                     ?_INTERRUPT_InterruptManager:	
  1897                           ; 1 bytes @ 0x0
  1898                           
  1899     0070                     ?_I2C1_Initialize:	
  1900                           ; 1 bytes @ 0x0
  1901                           
  1902     0070                     ?_TMR0_Initialize:	
  1903                           ; 1 bytes @ 0x0
  1904                           
  1905     0070                     ?_SYSTEM_Initialize:	
  1906                           ; 1 bytes @ 0x0
  1907                           
  1908     0070                     ?_main:	
  1909                           ; 1 bytes @ 0x0
  1910                           
  1911     0070                     I2C1_SlaveSendTxData@data:	
  1912                           ; 1 bytes @ 0x0
  1913                           
  1914                           
  1915                           ; 1 bytes @ 0x0
  1916     0070                     	ds	1
  1917     0071                     ??_TMR0_ISR:
  1918     0071                     ??_I2C1_Isr:	
  1919                           ; 1 bytes @ 0x1
  1920                           
  1921     0071                     ??_I2C1_SlaveDefWrInterruptHandler:	
  1922                           ; 1 bytes @ 0x1
  1923                           
  1924     0071                     ??_I2C1_SlaveWrCallBack:	
  1925                           ; 1 bytes @ 0x1
  1926                           
  1927                           
  1928                           ; 1 bytes @ 0x1
  1929     0071                     	ds	2
  1930     0073                     ?_TMR0_SetInterruptHandler:
  1931     0073                     ?_FLASH_EraseBlock:	
  1932                           ; 1 bytes @ 0x3
  1933                           
  1934     0073                     ??_OSCILLATOR_Initialize:	
  1935                           ; 1 bytes @ 0x3
  1936                           
  1937     0073                     ??_WDT_Initialize:	
  1938                           ; 1 bytes @ 0x3
  1939                           
  1940     0073                     ??_SensorBoardType_validation:	
  1941                           ; 1 bytes @ 0x3
  1942                           
  1943     0073                     ??_PIN_MANAGER_Initialize:	
  1944                           ; 1 bytes @ 0x3
  1945                           
  1946     0073                     ??_INTERRUPT_InterruptManager:	
  1947                           ; 1 bytes @ 0x3
  1948                           
  1949     0073                     ??_I2C1_Initialize:	
  1950                           ; 1 bytes @ 0x3
  1951                           
  1952     0073                     ?_FLASH_ReadWord:	
  1953                           ; 1 bytes @ 0x3
  1954                           
  1955     0073                     SensorBoardType_validation@SensorBoardType:	
  1956                           ; 2 bytes @ 0x3
  1957                           
  1958     0073                     TMR0_SetInterruptHandler@InterruptHandler:	
  1959                           ; 1 bytes @ 0x3
  1960                           
  1961     0073                     FLASH_ReadWord@flashAddr:	
  1962                           ; 2 bytes @ 0x3
  1963                           
  1964     0073                     FLASH_EraseBlock@startAddr:	
  1965                           ; 2 bytes @ 0x3
  1966                           
  1967                           
  1968                           ; 2 bytes @ 0x3
  1969     0073                     	ds	2
  1970     0075                     ??_FLASH_ReadWord:
  1971     0075                     ??_TMR0_SetInterruptHandler:	
  1972                           ; 1 bytes @ 0x5
  1973                           
  1974     0075                     ??_FLASH_EraseBlock:	
  1975                           ; 1 bytes @ 0x5
  1976                           
  1977     0075                     ??_TMR0_Initialize:	
  1978                           ; 1 bytes @ 0x5
  1979                           
  1980     0075                     ??_SYSTEM_Initialize:	
  1981                           ; 1 bytes @ 0x5
  1982                           
  1983     0075                     FLASH_ReadWord@GIEBitValue:	
  1984                           ; 1 bytes @ 0x5
  1985                           
  1986     0075                     FLASH_EraseBlock@GIEBitValue:	
  1987                           ; 1 bytes @ 0x5
  1988                           
  1989                           
  1990                           ; 1 bytes @ 0x5
  1991     0075                     	ds	1
  1992     0076                     ??_memory_initialize:
  1993     0076                     memory_initialize@teste:	
  1994                           ; 1 bytes @ 0x6
  1995                           
  1996                           
  1997                           ; 2 bytes @ 0x6
  1998     0076                     	ds	2
  1999                           
  2000                           	psect	cstackBANK0
  2001     0020                     __pcstackBANK0:
  2002     0020                     ?_FLASH_WriteBlock:
  2003     0020                     FLASH_WriteBlock@writeAddr:	
  2004                           ; 1 bytes @ 0x0
  2005                           
  2006                           
  2007                           ; 2 bytes @ 0x0
  2008     0020                     	ds	2
  2009     0022                     FLASH_WriteBlock@flashWordArray:
  2010                           
  2011                           ; 1 bytes @ 0x2
  2012     0022                     	ds	1
  2013     0023                     ??_FLASH_WriteBlock:
  2014                           
  2015                           ; 1 bytes @ 0x3
  2016     0023                     	ds	3
  2017     0026                     FLASH_WriteBlock@blockStartAddr:
  2018                           
  2019                           ; 2 bytes @ 0x6
  2020     0026                     	ds	2
  2021     0028                     FLASH_WriteBlock@GIEBitValue:
  2022                           
  2023                           ; 1 bytes @ 0x8
  2024     0028                     	ds	1
  2025     0029                     FLASH_WriteBlock@i:
  2026                           
  2027                           ; 1 bytes @ 0x9
  2028     0029                     	ds	1
  2029     002A                     ??_main:
  2030                           
  2031                           ; 1 bytes @ 0xA
  2032     002A                     	ds	1
  2033     002B                     main@TAG:
  2034                           
  2035                           ; 1 bytes @ 0xB
  2036     002B                     	ds	1
  2037     002C                     main@v:
  2038                           
  2039                           ; 3 bytes @ 0xC
  2040     002C                     	ds	3
  2041                           
  2042                           	psect	maintext
  2043     01B0                     __pmaintext:	
  2044 ;;
  2045 ;;Main: autosize = 0, tempsize = 1, incstack = 0, save=0
  2046 ;;
  2047 ;; *************** function _main *****************
  2048 ;; Defined at:
  2049 ;;		line 112 in file "main.c"
  2050 ;; Parameters:    Size  Location     Type
  2051 ;;		None
  2052 ;; Auto vars:     Size  Location     Type
  2053 ;;  v               3   12[BANK0 ] unsigned char [3]
  2054 ;;  TAG             1   11[BANK0 ] unsigned char 
  2055 ;; Return value:  Size  Location     Type
  2056 ;;                  1    wreg      void 
  2057 ;; Registers used:
  2058 ;;		wreg, fsr1l, fsr1h, status,2, status,0, pclath, cstack
  2059 ;; Tracked objects:
  2060 ;;		On entry : B3F/0
  2061 ;;		On exit  : 0/0
  2062 ;;		Unchanged: 0/0
  2063 ;; Data sizes:     COMMON   BANK0   BANK1   BANK2
  2064 ;;      Params:         0       0       0       0
  2065 ;;      Locals:         0       4       0       0
  2066 ;;      Temps:          0       1       0       0
  2067 ;;      Totals:         0       5       0       0
  2068 ;;Total ram usage:        5 bytes
  2069 ;; Hardware stack levels required when called: 8
  2070 ;; This function calls:
  2071 ;;		_SYSTEM_Initialize
  2072 ;;		_SensorBoardType_validation
  2073 ;;		_memory_initialize
  2074 ;; This function is called by:
  2075 ;;		Startup code after reset
  2076 ;; This function uses a non-reentrant model
  2077 ;;
  2078                           
  2079     01B0                     _main:	
  2080                           ;psect for function _main
  2081                           
  2082     01B0                     l2062:	
  2083                           ;incstack = 0
  2084                           ; Regs used in _main: [wreg+fsr1l+fsr1h+status,2+status,0+pclath+cstack]
  2085                           
  2086                           
  2087                           ;main.c: 116:     SYSTEM_Initialize();
  2088     01B0  3182  2241  3181   	fcall	_SYSTEM_Initialize
  2089     01B3                     l2064:
  2090                           
  2091                           ;main.c: 117:     memory_initialize();
  2092     01B3  3181  2163  3181   	fcall	_memory_initialize
  2093     01B6                     l2066:
  2094                           
  2095                           ;main.c: 124:     (INTCONbits.GIE = 1);
  2096     01B6  178B               	bsf	11,7	;volatile
  2097     01B7                     l2068:
  2098                           
  2099                           ;main.c: 127:     (INTCONbits.PEIE = 1);
  2100     01B7  170B               	bsf	11,6	;volatile
  2101     01B8                     l2070:
  2102     01B8                     l2072:
  2103                           
  2104                           ;main.c: 143:         v[0] = PORTC & 0x3C;
  2105     01B8  0140               	movlb	0	; select bank0
  2106     01B9  080E               	movf	14,w	;volatile
  2107     01BA  393C               	andlw	60
  2108     01BB  00AC               	movwf	main@v
  2109     01BC                     l2074:
  2110                           
  2111                           ;main.c: 144:         v[1] = PORTA & 0x30;
  2112     01BC  080C               	movf	12,w	;volatile
  2113     01BD  3930               	andlw	48
  2114     01BE  00AD               	movwf	main@v+1
  2115     01BF                     l2076:
  2116                           
  2117                           ;main.c: 146:         v[2] = v[0]>>2;
  2118     01BF  082C               	movf	main@v,w
  2119     01C0  00AA               	movwf	??_main
  2120     01C1  3002               	movlw	2
  2121     01C2                     u665:
  2122     01C2  36AA               	lsrf	??_main,f
  2123     01C3  0B89               	decfsz	9,f
  2124     01C4  29C2               	goto	u665
  2125     01C5  082A               	movf	??_main,w
  2126     01C6  00AE               	movwf	main@v+2
  2127     01C7                     l2078:
  2128                           
  2129                           ;main.c: 148:         TAG = v[2] | v[1];
  2130     01C7  082E               	movf	main@v+2,w
  2131     01C8  042D               	iorwf	main@v+1,w
  2132     01C9  00AB               	movwf	main@TAG
  2133     01CA                     l2080:
  2134                           
  2135                           ;main.c: 149:         v[0]=SensorBoardType_validation(TAG);
  2136     01CA  082B               	movf	main@TAG,w
  2137     01CB  3182  2231  3181   	fcall	_SensorBoardType_validation
  2138     01CE  0140               	movlb	0	; select bank0
  2139     01CF  00AC               	movwf	main@v
  2140     01D0  29B8               	goto	l2070
  2141     01D1  2831               	ljmp	start
  2142     01D2                     __end_of_main:
  2143                           
  2144                           	psect	text1
  2145     0163                     __ptext1:	
  2146 ;; *************** function _memory_initialize *****************
  2147 ;; Defined at:
  2148 ;;		line 15 in file "flash_memory_filling.c"
  2149 ;; Parameters:    Size  Location     Type
  2150 ;;		None
  2151 ;; Auto vars:     Size  Location     Type
  2152 ;;  flag            1    0        unsigned char 
  2153 ;;  teste           2    6[COMMON] unsigned short 
  2154 ;; Return value:  Size  Location     Type
  2155 ;;                  1    wreg      void 
  2156 ;; Registers used:
  2157 ;;		wreg, fsr1l, fsr1h, status,2, status,0, pclath, cstack
  2158 ;; Tracked objects:
  2159 ;;		On entry : 0/0
  2160 ;;		On exit  : 0/0
  2161 ;;		Unchanged: 0/0
  2162 ;; Data sizes:     COMMON   BANK0   BANK1   BANK2
  2163 ;;      Params:         0       0       0       0
  2164 ;;      Locals:         2       0       0       0
  2165 ;;      Temps:          0       0       0       0
  2166 ;;      Totals:         2       0       0       0
  2167 ;;Total ram usage:        2 bytes
  2168 ;; Hardware stack levels used: 1
  2169 ;; Hardware stack levels required when called: 7
  2170 ;; This function calls:
  2171 ;;		_FLASH_ReadWord
  2172 ;;		_FLASH_WriteBlock
  2173 ;; This function is called by:
  2174 ;;		_main
  2175 ;; This function uses a non-reentrant model
  2176 ;;
  2177                           
  2178     0163                     _memory_initialize:	
  2179                           ;psect for function _memory_initialize
  2180                           
  2181     0163                     l2034:	
  2182                           ;incstack = 0
  2183                           ; Regs used in _memory_initialize: [wreg+fsr1l+fsr1h+status,2+status,0+pclath+cstack]
  2184                           
  2185     0163                     l2036:
  2186                           
  2187                           ;flash_memory_filling.c: 18:     if(FLASH_ReadWord(0x0780) != 0x1555)
  2188     0163  3080               	movlw	128
  2189     0164  00F3               	movwf	FLASH_ReadWord@flashAddr
  2190     0165  3007               	movlw	7
  2191     0166  00F4               	movwf	FLASH_ReadWord@flashAddr+1
  2192     0167  3181  21EE  3181   	fcall	_FLASH_ReadWord
  2193     016A  3055               	movlw	85
  2194     016B  0673               	xorwf	?_FLASH_ReadWord,w
  2195     016C  3015               	movlw	21
  2196     016D  1903               	skipnz
  2197     016E  0674               	xorwf	?_FLASH_ReadWord+1,w
  2198     016F  1903               	btfsc	3,2
  2199     0170  2972               	goto	u641
  2200     0171  2973               	goto	u640
  2201     0172                     u641:
  2202     0172  297D               	goto	l2040
  2203     0173                     u640:
  2204     0173                     l2038:
  2205     0173  3080               	movlw	128
  2206     0174  0140               	movlb	0	; select bank0
  2207     0175  00A0               	movwf	FLASH_WriteBlock@writeAddr
  2208     0176  3007               	movlw	7
  2209     0177  00A1               	movwf	FLASH_WriteBlock@writeAddr+1
  2210     0178  30A0               	movlw	(low (_dataBlock| 0))& (0+255)
  2211     0179  00A2               	movwf	FLASH_WriteBlock@flashWordArray
  2212     017A  3180  204C  3181   	fcall	_FLASH_WriteBlock
  2213     017D                     l2040:
  2214                           
  2215                           ;flash_memory_filling.c: 24:     teste = FLASH_ReadWord(0x0780);
  2216     017D  3080               	movlw	128
  2217     017E  00F3               	movwf	FLASH_ReadWord@flashAddr
  2218     017F  3007               	movlw	7
  2219     0180  00F4               	movwf	FLASH_ReadWord@flashAddr+1
  2220     0181  3181  21EE  3181   	fcall	_FLASH_ReadWord
  2221     0184  0874               	movf	?_FLASH_ReadWord+1,w
  2222     0185  00F7               	movwf	memory_initialize@teste+1
  2223     0186  0873               	movf	?_FLASH_ReadWord,w
  2224     0187  00F6               	movwf	memory_initialize@teste
  2225     0188                     l2042:
  2226                           
  2227                           ;flash_memory_filling.c: 25:     teste++;
  2228     0188  3001               	movlw	1
  2229     0189  07F6               	addwf	memory_initialize@teste,f
  2230     018A  3000               	movlw	0
  2231     018B  3DF7               	addwfc	memory_initialize@teste+1,f
  2232     018C                     l26:
  2233     018C  0008               	return
  2234     018D                     __end_of_memory_initialize:
  2235                           
  2236                           	psect	text2
  2237     004C                     __ptext2:	
  2238 ;; *************** function _FLASH_WriteBlock *****************
  2239 ;; Defined at:
  2240 ;;		line 94 in file "mcc_generated_files/memory.c"
  2241 ;; Parameters:    Size  Location     Type
  2242 ;;  writeAddr       2    0[BANK0 ] unsigned short 
  2243 ;;  flashWordArr    1    2[BANK0 ] PTR unsigned short 
  2244 ;;		 -> dataBlock(64), 
  2245 ;; Auto vars:     Size  Location     Type
  2246 ;;  blockStartAd    2    6[BANK0 ] unsigned short 
  2247 ;;  i               1    9[BANK0 ] unsigned char 
  2248 ;;  GIEBitValue     1    8[BANK0 ] unsigned char 
  2249 ;; Return value:  Size  Location     Type
  2250 ;;                  1    wreg      char 
  2251 ;; Registers used:
  2252 ;;		wreg, fsr1l, fsr1h, status,2, status,0, pclath, cstack
  2253 ;; Tracked objects:
  2254 ;;		On entry : 0/0
  2255 ;;		On exit  : 0/0
  2256 ;;		Unchanged: 0/0
  2257 ;; Data sizes:     COMMON   BANK0   BANK1   BANK2
  2258 ;;      Params:         0       3       0       0
  2259 ;;      Locals:         0       4       0       0
  2260 ;;      Temps:          0       3       0       0
  2261 ;;      Totals:         0      10       0       0
  2262 ;;Total ram usage:       10 bytes
  2263 ;; Hardware stack levels used: 1
  2264 ;; Hardware stack levels required when called: 6
  2265 ;; This function calls:
  2266 ;;		_FLASH_EraseBlock
  2267 ;; This function is called by:
  2268 ;;		_memory_initialize
  2269 ;;		_FLASH_WriteWord
  2270 ;; This function uses a non-reentrant model
  2271 ;;
  2272                           
  2273     004C                     _FLASH_WriteBlock:	
  2274                           ;psect for function _FLASH_WriteBlock
  2275                           
  2276     004C                     l1980:	
  2277                           ;incstack = 0
  2278                           ; Regs used in _FLASH_WriteBlock: [wreg+fsr1l+fsr1h+status,2+status,0+pclath+cstack]
  2279                           
  2280                           
  2281                           ;mcc_generated_files/memory.c: 94: int8_t FLASH_WriteBlock(uint16_t writeAddr, uint16_t 
      +                          *flashWordArray);mcc_generated_files/memory.c: 95: {;mcc_generated_files/memory.c: 96:  
      +                             uint16_t blockStartAddr = (uint16_t )(writeAddr & ((0x800 -1) ^ (32 -1)));
  2282     004C  30E0               	movlw	224
  2283     004D  0140               	movlb	0	; select bank0
  2284     004E  0520               	andwf	FLASH_WriteBlock@writeAddr,w
  2285     004F  00A6               	movwf	FLASH_WriteBlock@blockStartAddr
  2286     0050  3007               	movlw	7
  2287     0051  0521               	andwf	FLASH_WriteBlock@writeAddr+1,w
  2288     0052  00A7               	movwf	FLASH_WriteBlock@blockStartAddr+1
  2289     0053                     l1982:
  2290                           
  2291                           ;mcc_generated_files/memory.c: 97:     uint8_t GIEBitValue = INTCONbits.GIE;
  2292     0053  3000               	movlw	0
  2293     0054  1B8B               	btfsc	11,7	;volatile
  2294     0055  3001               	movlw	1
  2295     0056  00A8               	movwf	FLASH_WriteBlock@GIEBitValue
  2296     0057                     l1984:
  2297                           
  2298                           ;mcc_generated_files/memory.c: 98:     uint8_t i;;mcc_generated_files/memory.c: 102:    
      +                           if( writeAddr != blockStartAddr )
  2299     0057  0827               	movf	FLASH_WriteBlock@blockStartAddr+1,w
  2300     0058  0621               	xorwf	FLASH_WriteBlock@writeAddr+1,w
  2301     0059  1D03               	skipz
  2302     005A  285D               	goto	u615
  2303     005B  0826               	movf	FLASH_WriteBlock@blockStartAddr,w
  2304     005C  0620               	xorwf	FLASH_WriteBlock@writeAddr,w
  2305     005D                     u615:
  2306     005D  1903               	skipnz
  2307     005E  2860               	goto	u611
  2308     005F  2861               	goto	u610
  2309     0060                     u611:
  2310     0060  2863               	goto	l460
  2311     0061                     u610:
  2312     0061                     l1986:
  2313                           
  2314                           ;mcc_generated_files/memory.c: 103:     {;mcc_generated_files/memory.c: 104:         ret
      +                          urn -1;
  2315     0061  30FF               	movlw	255
  2316     0062  28B9               	goto	l461
  2317     0063                     l460:	
  2318                           ;mcc_generated_files/memory.c: 105:     }
  2319                           
  2320                           
  2321                           ;mcc_generated_files/memory.c: 107:     INTCONbits.GIE = 0;
  2322     0063  138B               	bcf	11,7	;volatile
  2323     0064                     l1990:
  2324                           
  2325                           ;mcc_generated_files/memory.c: 110:     FLASH_EraseBlock(writeAddr);
  2326     0064  0821               	movf	FLASH_WriteBlock@writeAddr+1,w
  2327     0065  00F4               	movwf	FLASH_EraseBlock@startAddr+1
  2328     0066  0820               	movf	FLASH_WriteBlock@writeAddr,w
  2329     0067  00F3               	movwf	FLASH_EraseBlock@startAddr
  2330     0068  3181  21D2  3180   	fcall	_FLASH_EraseBlock
  2331     006B                     l1992:
  2332                           
  2333                           ;mcc_generated_files/memory.c: 113:     NVMCON1bits.NVMREGS = 0;
  2334     006B  0150               	movlb	16	; select bank16
  2335     006C  131E               	bcf	30,6	;volsfr
  2336     006D                     l1994:
  2337                           
  2338                           ;mcc_generated_files/memory.c: 114:     NVMCON1bits.WREN = 1;
  2339     006D  151E               	bsf	30,2	;volsfr
  2340     006E                     l1996:
  2341                           
  2342                           ;mcc_generated_files/memory.c: 115:     NVMCON1bits.LWLO = 1;
  2343     006E  169E               	bsf	30,5	;volsfr
  2344     006F                     l1998:
  2345                           
  2346                           ;mcc_generated_files/memory.c: 117:     for (i=0; i<32; i++)
  2347     006F  0140               	movlb	0	; select bank0
  2348     0070  01A9               	clrf	FLASH_WriteBlock@i
  2349     0071                     l2004:
  2350                           
  2351                           ;mcc_generated_files/memory.c: 118:     {;mcc_generated_files/memory.c: 120:         NVM
      +                          ADRL = (writeAddr & 0xFF);
  2352     0071  0820               	movf	FLASH_WriteBlock@writeAddr,w
  2353     0072  0150               	movlb	16	; select bank16
  2354     0073  009A               	movwf	26	;volatile
  2355     0074                     l2006:
  2356                           
  2357                           ;mcc_generated_files/memory.c: 122:         NVMADRH = ((writeAddr & 0xFF00) >> 8);
  2358     0074  0140               	movlb	0	; select bank0
  2359     0075  0821               	movf	FLASH_WriteBlock@writeAddr+1,w
  2360     0076  0150               	movlb	16	; select bank16
  2361     0077  009B               	movwf	27	;volatile
  2362     0078                     l2008:
  2363                           
  2364                           ;mcc_generated_files/memory.c: 125:         NVMDATL = flashWordArray[i];
  2365     0078  0140               	movlb	0	; select bank0
  2366     0079  3529               	lslf	FLASH_WriteBlock@i,w
  2367     007A  0722               	addwf	FLASH_WriteBlock@flashWordArray,w
  2368     007B  00A3               	movwf	??_FLASH_WriteBlock
  2369     007C  0823               	movf	??_FLASH_WriteBlock,w
  2370     007D  0086               	movwf	6
  2371     007E  0187               	clrf	7
  2372     007F  0801               	movf	1,w
  2373     0080  0150               	movlb	16	; select bank16
  2374     0081  009C               	movwf	28	;volatile
  2375     0082                     l2010:
  2376                           
  2377                           ;mcc_generated_files/memory.c: 126:         NVMDATH = ((flashWordArray[i] & 0xFF00) >> 8
      +                          );
  2378     0082  0140               	movlb	0	; select bank0
  2379     0083  3529               	lslf	FLASH_WriteBlock@i,w
  2380     0084  0722               	addwf	FLASH_WriteBlock@flashWordArray,w
  2381     0085  00A3               	movwf	??_FLASH_WriteBlock
  2382     0086  0823               	movf	??_FLASH_WriteBlock,w
  2383     0087  0086               	movwf	6
  2384     0088  0187               	clrf	7
  2385     0089  3F40               	moviw [0]fsr1
  2386     008A  00A4               	movwf	??_FLASH_WriteBlock+1
  2387     008B  3F41               	moviw [1]fsr1
  2388     008C  00A5               	movwf	??_FLASH_WriteBlock+2
  2389     008D  0825               	movf	??_FLASH_WriteBlock+2,w
  2390     008E  0150               	movlb	16	; select bank16
  2391     008F  009D               	movwf	29	;volatile
  2392     0090                     l2012:
  2393                           
  2394                           ;mcc_generated_files/memory.c: 128:         if(i == (32 -1))
  2395     0090  301F               	movlw	31
  2396     0091  0140               	movlb	0	; select bank0
  2397     0092  0629               	xorwf	FLASH_WriteBlock@i,w
  2398     0093  1D03               	btfss	3,2
  2399     0094  2896               	goto	u621
  2400     0095  2897               	goto	u620
  2401     0096                     u621:
  2402     0096  2899               	goto	l2016
  2403     0097                     u620:
  2404     0097                     l2014:
  2405                           
  2406                           ;mcc_generated_files/memory.c: 129:         {;mcc_generated_files/memory.c: 131:        
      +                               NVMCON1bits.LWLO = 0;
  2407     0097  0150               	movlb	16	; select bank16
  2408     0098  129E               	bcf	30,5	;volsfr
  2409     0099                     l2016:
  2410                           
  2411                           ;mcc_generated_files/memory.c: 134:         NVMCON2 = 0x55;
  2412     0099  3055               	movlw	85
  2413     009A  0150               	movlb	16	; select bank16
  2414     009B  009F               	movwf	31	;volsfr
  2415                           
  2416                           ;mcc_generated_files/memory.c: 135:         NVMCON2 = 0xAA;
  2417     009C  30AA               	movlw	170
  2418     009D  009F               	movwf	31	;volsfr
  2419     009E                     l2018:
  2420                           
  2421                           ;mcc_generated_files/memory.c: 136:         NVMCON1bits.WR = 1;
  2422     009E  149E               	bsf	30,1	;volsfr
  2423     009F                     l2020:
  2424                           
  2425                           ;mcc_generated_files/memory.c: 137:         __nop();
  2426     009F  0000               	nop
  2427     00A0                     l2022:
  2428                           
  2429                           ;mcc_generated_files/memory.c: 138:         __nop();
  2430     00A0  0000               	nop
  2431                           
  2432                           ;mcc_generated_files/memory.c: 140:      writeAddr++;
  2433     00A1  3001               	movlw	1
  2434     00A2  0140               	movlb	0	; select bank0
  2435     00A3  07A0               	addwf	FLASH_WriteBlock@writeAddr,f
  2436     00A4  3000               	movlw	0
  2437     00A5  3DA1               	addwfc	FLASH_WriteBlock@writeAddr+1,f
  2438     00A6                     l2024:
  2439                           
  2440                           ;mcc_generated_files/memory.c: 141:     }
  2441     00A6  3001               	movlw	1
  2442     00A7  00A3               	movwf	??_FLASH_WriteBlock
  2443     00A8  0823               	movf	??_FLASH_WriteBlock,w
  2444     00A9  07A9               	addwf	FLASH_WriteBlock@i,f
  2445     00AA                     l2026:
  2446     00AA  3020               	movlw	32
  2447     00AB  0229               	subwf	FLASH_WriteBlock@i,w
  2448     00AC  1C03               	skipc
  2449     00AD  28AF               	goto	u631
  2450     00AE  28B0               	goto	u630
  2451     00AF                     u631:
  2452     00AF  2871               	goto	l2004
  2453     00B0                     u630:
  2454     00B0                     l463:
  2455                           
  2456                           ;mcc_generated_files/memory.c: 143:     NVMCON1bits.WREN = 0;
  2457     00B0  0150               	movlb	16	; select bank16
  2458     00B1  111E               	bcf	30,2	;volsfr
  2459     00B2                     l2028:
  2460                           
  2461                           ;mcc_generated_files/memory.c: 144:     INTCONbits.GIE = GIEBitValue;
  2462     00B2  0140               	movlb	0	; select bank0
  2463     00B3  0C28               	rrf	FLASH_WriteBlock@GIEBitValue,w
  2464     00B4  1C03               	skipc
  2465     00B5  138B               	bcf	11,7	;volatile
  2466     00B6  1803               	skipnc
  2467     00B7  178B               	bsf	11,7	;volatile
  2468     00B8                     l2030:
  2469                           
  2470                           ;mcc_generated_files/memory.c: 146:     return 0;
  2471     00B8  3000               	movlw	0
  2472     00B9                     l461:
  2473     00B9  0008               	return
  2474     00BA                     __end_of_FLASH_WriteBlock:
  2475                           
  2476                           	psect	text3
  2477     01D2                     __ptext3:	
  2478 ;; *************** function _FLASH_EraseBlock *****************
  2479 ;; Defined at:
  2480 ;;		line 149 in file "mcc_generated_files/memory.c"
  2481 ;; Parameters:    Size  Location     Type
  2482 ;;  startAddr       2    3[COMMON] unsigned short 
  2483 ;; Auto vars:     Size  Location     Type
  2484 ;;  GIEBitValue     1    5[COMMON] unsigned char 
  2485 ;; Return value:  Size  Location     Type
  2486 ;;                  1    wreg      void 
  2487 ;; Registers used:
  2488 ;;		wreg, status,2, status,0
  2489 ;; Tracked objects:
  2490 ;;		On entry : 0/0
  2491 ;;		On exit  : 0/0
  2492 ;;		Unchanged: 0/0
  2493 ;; Data sizes:     COMMON   BANK0   BANK1   BANK2
  2494 ;;      Params:         2       0       0       0
  2495 ;;      Locals:         1       0       0       0
  2496 ;;      Temps:          0       0       0       0
  2497 ;;      Totals:         3       0       0       0
  2498 ;;Total ram usage:        3 bytes
  2499 ;; Hardware stack levels used: 1
  2500 ;; Hardware stack levels required when called: 5
  2501 ;; This function calls:
  2502 ;;		Nothing
  2503 ;; This function is called by:
  2504 ;;		_FLASH_WriteBlock
  2505 ;; This function uses a non-reentrant model
  2506 ;;
  2507                           
  2508     01D2                     _FLASH_EraseBlock:	
  2509                           ;psect for function _FLASH_EraseBlock
  2510                           
  2511     01D2                     l1596:	
  2512                           ;incstack = 0
  2513                           ; Regs used in _FLASH_EraseBlock: [wreg+status,2+status,0]
  2514                           
  2515                           
  2516                           ;mcc_generated_files/memory.c: 149: void FLASH_EraseBlock(uint16_t startAddr);mcc_genera
      +                          ted_files/memory.c: 150: {;mcc_generated_files/memory.c: 151:     uint8_t GIEBitValue = 
      +                          INTCONbits.GIE;
  2517     01D2  3000               	movlw	0
  2518     01D3  1B8B               	btfsc	11,7	;volatile
  2519     01D4  3001               	movlw	1
  2520     01D5  00F5               	movwf	FLASH_EraseBlock@GIEBitValue
  2521     01D6                     l1598:
  2522                           
  2523                           ;mcc_generated_files/memory.c: 154:     INTCONbits.GIE = 0;
  2524     01D6  138B               	bcf	11,7	;volatile
  2525     01D7                     l1600:
  2526                           
  2527                           ;mcc_generated_files/memory.c: 156:     NVMADRL = (startAddr & 0xFF);
  2528     01D7  0873               	movf	FLASH_EraseBlock@startAddr,w
  2529     01D8  0150               	movlb	16	; select bank16
  2530     01D9  009A               	movwf	26	;volatile
  2531     01DA                     l1602:
  2532                           
  2533                           ;mcc_generated_files/memory.c: 158:     NVMADRH = ((startAddr & 0xFF00) >> 8);
  2534     01DA  0874               	movf	FLASH_EraseBlock@startAddr+1,w
  2535     01DB  009B               	movwf	27	;volatile
  2536     01DC                     l1604:
  2537                           
  2538                           ;mcc_generated_files/memory.c: 161:     NVMCON1bits.NVMREGS = 0;
  2539     01DC  131E               	bcf	30,6	;volsfr
  2540     01DD                     l1606:
  2541                           
  2542                           ;mcc_generated_files/memory.c: 162:     NVMCON1bits.FREE = 1;
  2543     01DD  161E               	bsf	30,4	;volsfr
  2544     01DE                     l1608:
  2545                           
  2546                           ;mcc_generated_files/memory.c: 163:     NVMCON1bits.WREN = 1;
  2547     01DE  151E               	bsf	30,2	;volsfr
  2548                           
  2549                           ;mcc_generated_files/memory.c: 166:     NVMCON2 = 0x55;
  2550     01DF  3055               	movlw	85
  2551     01E0  009F               	movwf	31	;volsfr
  2552                           
  2553                           ;mcc_generated_files/memory.c: 167:     NVMCON2 = 0xAA;
  2554     01E1  30AA               	movlw	170
  2555     01E2  009F               	movwf	31	;volsfr
  2556     01E3                     l1610:
  2557                           
  2558                           ;mcc_generated_files/memory.c: 168:     NVMCON1bits.WR = 1;
  2559     01E3  149E               	bsf	30,1	;volsfr
  2560     01E4                     l1612:
  2561                           
  2562                           ;mcc_generated_files/memory.c: 169:     __nop();
  2563     01E4  0000               	nop
  2564     01E5                     l1614:
  2565                           
  2566                           ;mcc_generated_files/memory.c: 170:     __nop();
  2567     01E5  0000               	nop
  2568     01E6                     l1616:
  2569                           
  2570                           ;mcc_generated_files/memory.c: 172:     NVMCON1bits.WREN = 0;
  2571     01E6  0150               	movlb	16	; select bank16
  2572     01E7  111E               	bcf	30,2	;volsfr
  2573     01E8                     l1618:
  2574                           
  2575                           ;mcc_generated_files/memory.c: 173:     INTCONbits.GIE = GIEBitValue;
  2576     01E8  0C75               	rrf	FLASH_EraseBlock@GIEBitValue,w
  2577     01E9  1C03               	skipc
  2578     01EA  138B               	bcf	11,7	;volatile
  2579     01EB  1803               	skipnc
  2580     01EC  178B               	bsf	11,7	;volatile
  2581     01ED                     l467:
  2582     01ED  0008               	return
  2583     01EE                     __end_of_FLASH_EraseBlock:
  2584                           
  2585                           	psect	text4
  2586     01EE                     __ptext4:	
  2587 ;; *************** function _FLASH_ReadWord *****************
  2588 ;; Defined at:
  2589 ;;		line 58 in file "mcc_generated_files/memory.c"
  2590 ;; Parameters:    Size  Location     Type
  2591 ;;  flashAddr       2    3[COMMON] unsigned short 
  2592 ;; Auto vars:     Size  Location     Type
  2593 ;;  GIEBitValue     1    5[COMMON] unsigned char 
  2594 ;; Return value:  Size  Location     Type
  2595 ;;                  2    3[COMMON] unsigned short 
  2596 ;; Registers used:
  2597 ;;		wreg, status,2, status,0
  2598 ;; Tracked objects:
  2599 ;;		On entry : 0/0
  2600 ;;		On exit  : 0/0
  2601 ;;		Unchanged: 0/0
  2602 ;; Data sizes:     COMMON   BANK0   BANK1   BANK2
  2603 ;;      Params:         2       0       0       0
  2604 ;;      Locals:         1       0       0       0
  2605 ;;      Temps:          0       0       0       0
  2606 ;;      Totals:         3       0       0       0
  2607 ;;Total ram usage:        3 bytes
  2608 ;; Hardware stack levels used: 1
  2609 ;; Hardware stack levels required when called: 5
  2610 ;; This function calls:
  2611 ;;		Nothing
  2612 ;; This function is called by:
  2613 ;;		_memory_initialize
  2614 ;;		_FLASH_WriteWord
  2615 ;; This function uses a non-reentrant model
  2616 ;;
  2617                           
  2618     01EE                     _FLASH_ReadWord:	
  2619                           ;psect for function _FLASH_ReadWord
  2620                           
  2621     01EE                     l1620:	
  2622                           ;incstack = 0
  2623                           ; Regs used in _FLASH_ReadWord: [wreg+status,2+status,0]
  2624                           
  2625                           
  2626                           ;mcc_generated_files/memory.c: 58: uint16_t FLASH_ReadWord(uint16_t flashAddr);mcc_gener
      +                          ated_files/memory.c: 59: {;mcc_generated_files/memory.c: 60:     uint8_t GIEBitValue = I
      +                          NTCONbits.GIE;
  2627     01EE  3000               	movlw	0
  2628     01EF  1B8B               	btfsc	11,7	;volatile
  2629     01F0  3001               	movlw	1
  2630     01F1  00F5               	movwf	FLASH_ReadWord@GIEBitValue
  2631     01F2                     l1622:
  2632                           
  2633                           ;mcc_generated_files/memory.c: 62:     INTCONbits.GIE = 0;
  2634     01F2  138B               	bcf	11,7	;volatile
  2635     01F3                     l1624:
  2636                           
  2637                           ;mcc_generated_files/memory.c: 63:     NVMADRL = (flashAddr & 0x00FF);
  2638     01F3  0873               	movf	FLASH_ReadWord@flashAddr,w
  2639     01F4  0150               	movlb	16	; select bank16
  2640     01F5  009A               	movwf	26	;volatile
  2641     01F6                     l1626:
  2642                           
  2643                           ;mcc_generated_files/memory.c: 64:     NVMADRH = ((flashAddr & 0xFF00) >> 8);
  2644     01F6  0874               	movf	FLASH_ReadWord@flashAddr+1,w
  2645     01F7  009B               	movwf	27	;volatile
  2646     01F8                     l1628:
  2647                           
  2648                           ;mcc_generated_files/memory.c: 66:     NVMCON1bits.NVMREGS = 0;
  2649     01F8  131E               	bcf	30,6	;volsfr
  2650     01F9                     l1630:
  2651                           
  2652                           ;mcc_generated_files/memory.c: 67:     NVMCON1bits.RD = 1;
  2653     01F9  141E               	bsf	30,0	;volsfr
  2654     01FA                     l1632:
  2655                           
  2656                           ;mcc_generated_files/memory.c: 68:     __nop();
  2657     01FA  0000               	nop
  2658     01FB                     l1634:
  2659                           
  2660                           ;mcc_generated_files/memory.c: 69:     __nop();
  2661     01FB  0000               	nop
  2662     01FC                     l1636:
  2663                           
  2664                           ;mcc_generated_files/memory.c: 70:     INTCONbits.GIE = GIEBitValue;
  2665     01FC  0C75               	rrf	FLASH_ReadWord@GIEBitValue,w
  2666     01FD  1C03               	skipc
  2667     01FE  138B               	bcf	11,7	;volatile
  2668     01FF  1803               	skipnc
  2669     0200  178B               	bsf	11,7	;volatile
  2670     0201                     l1638:
  2671                           
  2672                           ;mcc_generated_files/memory.c: 72:     return ((uint16_t)((NVMDATH << 8) | NVMDATL));
  2673     0201  0150               	movlb	16	; select bank16
  2674     0202  081D               	movf	29,w	;volatile
  2675     0203  00F4               	movwf	?_FLASH_ReadWord+1
  2676     0204  081C               	movf	28,w	;volatile
  2677     0205  00F3               	movwf	?_FLASH_ReadWord
  2678     0206                     l452:
  2679     0206  0008               	return
  2680     0207                     __end_of_FLASH_ReadWord:
  2681                           
  2682                           	psect	text5
  2683     0231                     __ptext5:	
  2684 ;; *************** function _SensorBoardType_validation *****************
  2685 ;; Defined at:
  2686 ;;		line 31 in file "mcc_generated_files/sensor.c"
  2687 ;; Parameters:    Size  Location     Type
  2688 ;;  SensorBoardT    1    wreg     unsigned char 
  2689 ;; Auto vars:     Size  Location     Type
  2690 ;;  SensorBoardT    1    3[COMMON] unsigned char 
  2691 ;; Return value:  Size  Location     Type
  2692 ;;                  1    wreg      unsigned char 
  2693 ;; Registers used:
  2694 ;;		wreg, status,2, status,0
  2695 ;; Tracked objects:
  2696 ;;		On entry : 0/0
  2697 ;;		On exit  : 0/0
  2698 ;;		Unchanged: 0/0
  2699 ;; Data sizes:     COMMON   BANK0   BANK1   BANK2
  2700 ;;      Params:         0       0       0       0
  2701 ;;      Locals:         1       0       0       0
  2702 ;;      Temps:          0       0       0       0
  2703 ;;      Totals:         1       0       0       0
  2704 ;;Total ram usage:        1 bytes
  2705 ;; Hardware stack levels used: 1
  2706 ;; Hardware stack levels required when called: 5
  2707 ;; This function calls:
  2708 ;;		Nothing
  2709 ;; This function is called by:
  2710 ;;		_main
  2711 ;; This function uses a non-reentrant model
  2712 ;;
  2713                           
  2714     0231                     _SensorBoardType_validation:	
  2715                           ;psect for function _SensorBoardType_validation
  2716                           
  2717                           
  2718                           ;incstack = 0
  2719                           ; Regs used in _SensorBoardType_validation: [wreg+status,2+status,0]
  2720                           ;SensorBoardType_validation@SensorBoardType stored from wreg
  2721     0231  00F3               	movwf	SensorBoardType_validation@SensorBoardType
  2722     0232                     l1858:
  2723                           
  2724                           ;mcc_generated_files/sensor.c: 31: uint8_t SensorBoardType_validation (uint8_t SensorBoa
      +                          rdType);mcc_generated_files/sensor.c: 32: {;mcc_generated_files/sensor.c: 33:     if(Sen
      +                          sorBoardType>=1)
  2725     0232  0873               	movf	SensorBoardType_validation@SensorBoardType,w
  2726     0233  1903               	btfsc	3,2
  2727     0234  2A36               	goto	u481
  2728     0235  2A37               	goto	u480
  2729     0236                     u481:
  2730     0236  2A3F               	goto	l1866
  2731     0237                     u480:
  2732     0237                     l1860:
  2733                           
  2734                           ;mcc_generated_files/sensor.c: 34:     {;mcc_generated_files/sensor.c: 35:         if(Se
      +                          nsorBoardType<=12)
  2735     0237  300D               	movlw	13
  2736     0238  0273               	subwf	SensorBoardType_validation@SensorBoardType,w
  2737     0239  1803               	skipnc
  2738     023A  2A3C               	goto	u491
  2739     023B  2A3D               	goto	u490
  2740     023C                     u491:
  2741     023C  2A3F               	goto	l1866
  2742     023D                     u490:
  2743     023D                     l1862:
  2744                           
  2745                           ;mcc_generated_files/sensor.c: 36:         {;mcc_generated_files/sensor.c: 37:          
      +                             return(1);
  2746     023D  3001               	movlw	1
  2747     023E  2A40               	goto	l558
  2748     023F                     l1866:
  2749                           
  2750                           ;mcc_generated_files/sensor.c: 41:     return(0);
  2751     023F  3000               	movlw	0
  2752     0240                     l558:
  2753     0240  0008               	return
  2754     0241                     __end_of_SensorBoardType_validation:
  2755                           
  2756                           	psect	text6
  2757     0241                     __ptext6:	
  2758 ;; *************** function _SYSTEM_Initialize *****************
  2759 ;; Defined at:
  2760 ;;		line 50 in file "mcc_generated_files/mcc.c"
  2761 ;; Parameters:    Size  Location     Type
  2762 ;;		None
  2763 ;; Auto vars:     Size  Location     Type
  2764 ;;		None
  2765 ;; Return value:  Size  Location     Type
  2766 ;;                  1    wreg      void 
  2767 ;; Registers used:
  2768 ;;		wreg, status,2, status,0, pclath, cstack
  2769 ;; Tracked objects:
  2770 ;;		On entry : 0/0
  2771 ;;		On exit  : 0/0
  2772 ;;		Unchanged: 0/0
  2773 ;; Data sizes:     COMMON   BANK0   BANK1   BANK2
  2774 ;;      Params:         0       0       0       0
  2775 ;;      Locals:         0       0       0       0
  2776 ;;      Temps:          0       0       0       0
  2777 ;;      Totals:         0       0       0       0
  2778 ;;Total ram usage:        0 bytes
  2779 ;; Hardware stack levels used: 1
  2780 ;; Hardware stack levels required when called: 7
  2781 ;; This function calls:
  2782 ;;		_I2C1_Initialize
  2783 ;;		_OSCILLATOR_Initialize
  2784 ;;		_PIN_MANAGER_Initialize
  2785 ;;		_TMR0_Initialize
  2786 ;;		_WDT_Initialize
  2787 ;; This function is called by:
  2788 ;;		_main
  2789 ;; This function uses a non-reentrant model
  2790 ;;
  2791                           
  2792     0241                     _SYSTEM_Initialize:	
  2793                           ;psect for function _SYSTEM_Initialize
  2794                           
  2795     0241                     l1852:	
  2796                           ;incstack = 0
  2797                           ; Regs used in _SYSTEM_Initialize: [wreg+status,2+status,0+pclath+cstack]
  2798                           
  2799                           
  2800                           ;mcc_generated_files/mcc.c: 53:     I2C1_Initialize();
  2801     0241  3182  2287  3182   	fcall	_I2C1_Initialize
  2802                           
  2803                           ;mcc_generated_files/mcc.c: 54:     PIN_MANAGER_Initialize();
  2804     0244  3181  218D  3182   	fcall	_PIN_MANAGER_Initialize
  2805                           
  2806                           ;mcc_generated_files/mcc.c: 55:     OSCILLATOR_Initialize();
  2807     0247  3182  22B1  3182   	fcall	_OSCILLATOR_Initialize
  2808     024A                     l1854:
  2809                           
  2810                           ;mcc_generated_files/mcc.c: 56:     WDT_Initialize();
  2811     024A  3182  22D6  3182   	fcall	_WDT_Initialize
  2812     024D                     l1856:
  2813                           
  2814                           ;mcc_generated_files/mcc.c: 57:     TMR0_Initialize();
  2815     024D  3182  221D  3182   	fcall	_TMR0_Initialize
  2816     0250                     l511:
  2817     0250  0008               	return
  2818     0251                     __end_of_SYSTEM_Initialize:
  2819                           
  2820                           	psect	text7
  2821     02D6                     __ptext7:	
  2822 ;; *************** function _WDT_Initialize *****************
  2823 ;; Defined at:
  2824 ;;		line 70 in file "mcc_generated_files/mcc.c"
  2825 ;; Parameters:    Size  Location     Type
  2826 ;;		None
  2827 ;; Auto vars:     Size  Location     Type
  2828 ;;		None
  2829 ;; Return value:  Size  Location     Type
  2830 ;;                  1    wreg      void 
  2831 ;; Registers used:
  2832 ;;		status,2
  2833 ;; Tracked objects:
  2834 ;;		On entry : 0/0
  2835 ;;		On exit  : 0/0
  2836 ;;		Unchanged: 0/0
  2837 ;; Data sizes:     COMMON   BANK0   BANK1   BANK2
  2838 ;;      Params:         0       0       0       0
  2839 ;;      Locals:         0       0       0       0
  2840 ;;      Temps:          0       0       0       0
  2841 ;;      Totals:         0       0       0       0
  2842 ;;Total ram usage:        0 bytes
  2843 ;; Hardware stack levels used: 1
  2844 ;; Hardware stack levels required when called: 5
  2845 ;; This function calls:
  2846 ;;		Nothing
  2847 ;; This function is called by:
  2848 ;;		_SYSTEM_Initialize
  2849 ;; This function uses a non-reentrant model
  2850 ;;
  2851                           
  2852     02D6                     _WDT_Initialize:	
  2853                           ;psect for function _WDT_Initialize
  2854                           
  2855     02D6                     l1792:	
  2856                           ;incstack = 0
  2857                           ; Regs used in _WDT_Initialize: [status,2]
  2858                           
  2859                           
  2860                           ;mcc_generated_files/mcc.c: 73:     WDTCON = 0x00;
  2861     02D6  0150               	movlb	16	; select bank16
  2862     02D7  018C               	clrf	12	;volatile
  2863     02D8                     l517:
  2864     02D8  0008               	return
  2865     02D9                     __end_of_WDT_Initialize:
  2866                           
  2867                           	psect	text8
  2868     021D                     __ptext8:	
  2869 ;; *************** function _TMR0_Initialize *****************
  2870 ;; Defined at:
  2871 ;;		line 67 in file "mcc_generated_files/tmr0.c"
  2872 ;; Parameters:    Size  Location     Type
  2873 ;;		None
  2874 ;; Auto vars:     Size  Location     Type
  2875 ;;		None
  2876 ;; Return value:  Size  Location     Type
  2877 ;;                  1    wreg      void 
  2878 ;; Registers used:
  2879 ;;		wreg, status,2, status,0, pclath, cstack
  2880 ;; Tracked objects:
  2881 ;;		On entry : 0/0
  2882 ;;		On exit  : 0/0
  2883 ;;		Unchanged: 0/0
  2884 ;; Data sizes:     COMMON   BANK0   BANK1   BANK2
  2885 ;;      Params:         0       0       0       0
  2886 ;;      Locals:         0       0       0       0
  2887 ;;      Temps:          0       0       0       0
  2888 ;;      Totals:         0       0       0       0
  2889 ;;Total ram usage:        0 bytes
  2890 ;; Hardware stack levels used: 1
  2891 ;; Hardware stack levels required when called: 6
  2892 ;; This function calls:
  2893 ;;		_TMR0_SetInterruptHandler
  2894 ;; This function is called by:
  2895 ;;		_SYSTEM_Initialize
  2896 ;; This function uses a non-reentrant model
  2897 ;;
  2898                           
  2899     021D                     _TMR0_Initialize:	
  2900                           ;psect for function _TMR0_Initialize
  2901                           
  2902     021D                     l1768:	
  2903                           ;incstack = 0
  2904                           ; Regs used in _TMR0_Initialize: [wreg+status,2+status,0+pclath+cstack]
  2905                           
  2906                           
  2907                           ;mcc_generated_files/tmr0.c: 72:     T0CON1 = 0x69;
  2908     021D  3069               	movlw	105
  2909     021E  014B               	movlb	11	; select bank11
  2910     021F  009F               	movwf	31	;volatile
  2911                           
  2912                           ;mcc_generated_files/tmr0.c: 75:     TMR0H = 0x9B;
  2913     0220  309B               	movlw	155
  2914     0221  009D               	movwf	29	;volatile
  2915     0222                     l1770:
  2916                           
  2917                           ;mcc_generated_files/tmr0.c: 78:     TMR0L = 0x00;
  2918     0222  019C               	clrf	28	;volatile
  2919     0223                     l1772:
  2920                           
  2921                           ;mcc_generated_files/tmr0.c: 81:     PIR0bits.TMR0IF = 0;
  2922     0223  014E               	movlb	14	; select bank14
  2923     0224  128C               	bcf	12,5	;volatile
  2924     0225                     l1774:
  2925                           
  2926                           ;mcc_generated_files/tmr0.c: 84:     PIE0bits.TMR0IE = 1;
  2927     0225  1696               	bsf	22,5	;volatile
  2928     0226                     l1776:
  2929                           
  2930                           ;mcc_generated_files/tmr0.c: 87:     TMR0_SetInterruptHandler(TMR0_DefaultInterruptHandl
      +                          er);
  2931     0226  3007               	movlw	low _TMR0_DefaultInterruptHandler
  2932     0227  00F3               	movwf	TMR0_SetInterruptHandler@InterruptHandler
  2933     0228  3002               	movlw	high _TMR0_DefaultInterruptHandler
  2934     0229  00F4               	movwf	TMR0_SetInterruptHandler@InterruptHandler+1
  2935     022A  3182  22AB  3182   	fcall	_TMR0_SetInterruptHandler
  2936     022D                     l1778:
  2937                           
  2938                           ;mcc_generated_files/tmr0.c: 90:     T0CON0 = 0x80;
  2939     022D  3080               	movlw	128
  2940     022E  014B               	movlb	11	; select bank11
  2941     022F  009E               	movwf	30	;volatile
  2942     0230                     l398:
  2943     0230  0008               	return
  2944     0231                     __end_of_TMR0_Initialize:
  2945                           
  2946                           	psect	text9
  2947     02AB                     __ptext9:	
  2948 ;; *************** function _TMR0_SetInterruptHandler *****************
  2949 ;; Defined at:
  2950 ;;		line 142 in file "mcc_generated_files/tmr0.c"
  2951 ;; Parameters:    Size  Location     Type
  2952 ;;  InterruptHan    2    3[COMMON] PTR FTN()void 
  2953 ;;		 -> TMR0_DefaultInterruptHandler(1), 
  2954 ;; Auto vars:     Size  Location     Type
  2955 ;;		None
  2956 ;; Return value:  Size  Location     Type
  2957 ;;                  1    wreg      void 
  2958 ;; Registers used:
  2959 ;;		wreg
  2960 ;; Tracked objects:
  2961 ;;		On entry : 0/0
  2962 ;;		On exit  : 0/0
  2963 ;;		Unchanged: 0/0
  2964 ;; Data sizes:     COMMON   BANK0   BANK1   BANK2
  2965 ;;      Params:         2       0       0       0
  2966 ;;      Locals:         0       0       0       0
  2967 ;;      Temps:          0       0       0       0
  2968 ;;      Totals:         2       0       0       0
  2969 ;;Total ram usage:        2 bytes
  2970 ;; Hardware stack levels used: 1
  2971 ;; Hardware stack levels required when called: 5
  2972 ;; This function calls:
  2973 ;;		Nothing
  2974 ;; This function is called by:
  2975 ;;		_TMR0_Initialize
  2976 ;; This function uses a non-reentrant model
  2977 ;;
  2978                           
  2979     02AB                     _TMR0_SetInterruptHandler:	
  2980                           ;psect for function _TMR0_SetInterruptHandler
  2981                           
  2982     02AB                     l1594:	
  2983                           ;incstack = 0
  2984                           ; Regs used in _TMR0_SetInterruptHandler: [wreg]
  2985                           
  2986                           
  2987                           ;mcc_generated_files/tmr0.c: 143:     TMR0_InterruptHandler = InterruptHandler;
  2988     02AB  0874               	movf	TMR0_SetInterruptHandler@InterruptHandler+1,w
  2989     02AC  0140               	movlb	0	; select bank0
  2990     02AD  00BE               	movwf	_TMR0_InterruptHandler+1
  2991     02AE  0873               	movf	TMR0_SetInterruptHandler@InterruptHandler,w
  2992     02AF  00BD               	movwf	_TMR0_InterruptHandler
  2993     02B0                     l420:
  2994     02B0  0008               	return
  2995     02B1                     __end_of_TMR0_SetInterruptHandler:
  2996                           
  2997                           	psect	text10
  2998     018D                     __ptext10:	
  2999 ;; *************** function _PIN_MANAGER_Initialize *****************
  3000 ;; Defined at:
  3001 ;;		line 55 in file "mcc_generated_files/pin_manager.c"
  3002 ;; Parameters:    Size  Location     Type
  3003 ;;		None
  3004 ;; Auto vars:     Size  Location     Type
  3005 ;;		None
  3006 ;; Return value:  Size  Location     Type
  3007 ;;                  1    wreg      void 
  3008 ;; Registers used:
  3009 ;;		wreg, status,2
  3010 ;; Tracked objects:
  3011 ;;		On entry : 0/0
  3012 ;;		On exit  : 0/0
  3013 ;;		Unchanged: 0/0
  3014 ;; Data sizes:     COMMON   BANK0   BANK1   BANK2
  3015 ;;      Params:         0       0       0       0
  3016 ;;      Locals:         0       0       0       0
  3017 ;;      Temps:          0       0       0       0
  3018 ;;      Totals:         0       0       0       0
  3019 ;;Total ram usage:        0 bytes
  3020 ;; Hardware stack levels used: 1
  3021 ;; Hardware stack levels required when called: 5
  3022 ;; This function calls:
  3023 ;;		Nothing
  3024 ;; This function is called by:
  3025 ;;		_SYSTEM_Initialize
  3026 ;; This function uses a non-reentrant model
  3027 ;;
  3028                           
  3029     018D                     _PIN_MANAGER_Initialize:	
  3030                           ;psect for function _PIN_MANAGER_Initialize
  3031                           
  3032     018D                     l1696:	
  3033                           ;incstack = 0
  3034                           ; Regs used in _PIN_MANAGER_Initialize: [wreg+status,2]
  3035                           
  3036                           
  3037                           ;mcc_generated_files/pin_manager.c: 60:     LATA = 0x00;
  3038     018D  0140               	movlb	0	; select bank0
  3039     018E  0198               	clrf	24	;volatile
  3040                           
  3041                           ;mcc_generated_files/pin_manager.c: 61:     LATC = 0x00;
  3042     018F  019A               	clrf	26	;volatile
  3043     0190                     l1698:
  3044                           
  3045                           ;mcc_generated_files/pin_manager.c: 66:     TRISA = 0x3B;
  3046     0190  303B               	movlw	59
  3047     0191  0092               	movwf	18	;volatile
  3048     0192                     l1700:
  3049                           
  3050                           ;mcc_generated_files/pin_manager.c: 67:     TRISC = 0x3F;
  3051     0192  303F               	movlw	63
  3052     0193  0094               	movwf	20	;volatile
  3053                           
  3054                           ;mcc_generated_files/pin_manager.c: 72:     ANSELC = 0x00;
  3055     0194  017E               	movlb	62	; select bank62
  3056     0195  01CE               	clrf	78	;volatile
  3057     0196                     l1702:
  3058                           
  3059                           ;mcc_generated_files/pin_manager.c: 73:     ANSELA = 0x07;
  3060     0196  3007               	movlw	7
  3061     0197  00B8               	movwf	56	;volatile
  3062     0198                     l1704:
  3063                           
  3064                           ;mcc_generated_files/pin_manager.c: 78:     WPUA = 0x00;
  3065     0198  01B9               	clrf	57	;volatile
  3066     0199                     l1706:
  3067                           
  3068                           ;mcc_generated_files/pin_manager.c: 79:     WPUC = 0x00;
  3069     0199  01CF               	clrf	79	;volatile
  3070     019A                     l1708:
  3071                           
  3072                           ;mcc_generated_files/pin_manager.c: 84:     ODCONA = 0x00;
  3073     019A  01BA               	clrf	58	;volatile
  3074     019B                     l1710:
  3075                           
  3076                           ;mcc_generated_files/pin_manager.c: 85:     ODCONC = 0x00;
  3077     019B  01D0               	clrf	80	;volatile
  3078     019C                     l1712:
  3079                           
  3080                           ;mcc_generated_files/pin_manager.c: 90:     SLRCONA = 0x37;
  3081     019C  3037               	movlw	55
  3082     019D  00BB               	movwf	59	;volatile
  3083     019E                     l1714:
  3084                           
  3085                           ;mcc_generated_files/pin_manager.c: 91:     SLRCONC = 0x3F;
  3086     019E  303F               	movlw	63
  3087     019F  00D1               	movwf	81	;volatile
  3088     01A0                     l1716:
  3089                           
  3090                           ;mcc_generated_files/pin_manager.c: 96:     INLVLA = 0x3F;
  3091     01A0  303F               	movlw	63
  3092     01A1  00BC               	movwf	60	;volatile
  3093     01A2                     l1718:
  3094                           
  3095                           ;mcc_generated_files/pin_manager.c: 97:     INLVLC = 0x3F;
  3096     01A2  303F               	movlw	63
  3097     01A3  00D2               	movwf	82	;volatile
  3098     01A4                     l1720:
  3099                           
  3100                           ;mcc_generated_files/pin_manager.c: 106:     RC0PPS = 0x07;
  3101     01A4  3007               	movlw	7
  3102     01A5  00A0               	movwf	32	;volatile
  3103     01A6                     l1722:
  3104                           
  3105                           ;mcc_generated_files/pin_manager.c: 107:     SSP1CLKPPS = 0x10;
  3106     01A6  3010               	movlw	16
  3107     01A7  017D               	movlb	61	; select bank61
  3108     01A8  00C5               	movwf	69	;volatile
  3109     01A9                     l1724:
  3110                           
  3111                           ;mcc_generated_files/pin_manager.c: 108:     RC1PPS = 0x08;
  3112     01A9  3008               	movlw	8
  3113     01AA  017E               	movlb	62	; select bank62
  3114     01AB  00A1               	movwf	33	;volatile
  3115     01AC                     l1726:
  3116                           
  3117                           ;mcc_generated_files/pin_manager.c: 109:     SSP1DATPPS = 0x11;
  3118     01AC  3011               	movlw	17
  3119     01AD  017D               	movlb	61	; select bank61
  3120     01AE  00C6               	movwf	70	;volatile
  3121     01AF                     l65:
  3122     01AF  0008               	return
  3123     01B0                     __end_of_PIN_MANAGER_Initialize:
  3124                           
  3125                           	psect	text11
  3126     02B1                     __ptext11:	
  3127 ;; *************** function _OSCILLATOR_Initialize *****************
  3128 ;; Defined at:
  3129 ;;		line 60 in file "mcc_generated_files/mcc.c"
  3130 ;; Parameters:    Size  Location     Type
  3131 ;;		None
  3132 ;; Auto vars:     Size  Location     Type
  3133 ;;		None
  3134 ;; Return value:  Size  Location     Type
  3135 ;;                  1    wreg      void 
  3136 ;; Registers used:
  3137 ;;		wreg, status,2
  3138 ;; Tracked objects:
  3139 ;;		On entry : 0/0
  3140 ;;		On exit  : 0/0
  3141 ;;		Unchanged: 0/0
  3142 ;; Data sizes:     COMMON   BANK0   BANK1   BANK2
  3143 ;;      Params:         0       0       0       0
  3144 ;;      Locals:         0       0       0       0
  3145 ;;      Temps:          0       0       0       0
  3146 ;;      Totals:         0       0       0       0
  3147 ;;Total ram usage:        0 bytes
  3148 ;; Hardware stack levels used: 1
  3149 ;; Hardware stack levels required when called: 5
  3150 ;; This function calls:
  3151 ;;		Nothing
  3152 ;; This function is called by:
  3153 ;;		_SYSTEM_Initialize
  3154 ;; This function uses a non-reentrant model
  3155 ;;
  3156                           
  3157     02B1                     _OSCILLATOR_Initialize:	
  3158                           ;psect for function _OSCILLATOR_Initialize
  3159                           
  3160     02B1                     l1786:	
  3161                           ;incstack = 0
  3162                           ; Regs used in _OSCILLATOR_Initialize: [wreg+status,2]
  3163                           
  3164                           
  3165                           ;mcc_generated_files/mcc.c: 63:     OSCEN = 0x00;
  3166     02B1  0151               	movlb	17	; select bank17
  3167     02B2  0191               	clrf	17	;volatile
  3168     02B3                     l1788:
  3169                           
  3170                           ;mcc_generated_files/mcc.c: 65:     OSCFRQ = 0x03;
  3171     02B3  3003               	movlw	3
  3172     02B4  0093               	movwf	19	;volatile
  3173     02B5                     l1790:
  3174                           
  3175                           ;mcc_generated_files/mcc.c: 67:     OSCTUNE = 0x00;
  3176     02B5  0192               	clrf	18	;volatile
  3177     02B6                     l514:
  3178     02B6  0008               	return
  3179     02B7                     __end_of_OSCILLATOR_Initialize:
  3180                           
  3181                           	psect	text12
  3182     0287                     __ptext12:	
  3183 ;; *************** function _I2C1_Initialize *****************
  3184 ;; Defined at:
  3185 ;;		line 108 in file "mcc_generated_files/i2c1_slave.c"
  3186 ;; Parameters:    Size  Location     Type
  3187 ;;		None
  3188 ;; Auto vars:     Size  Location     Type
  3189 ;;		None
  3190 ;; Return value:  Size  Location     Type
  3191 ;;                  1    wreg      void 
  3192 ;; Registers used:
  3193 ;;		wreg, status,2, status,0
  3194 ;; Tracked objects:
  3195 ;;		On entry : 0/0
  3196 ;;		On exit  : 0/0
  3197 ;;		Unchanged: 0/0
  3198 ;; Data sizes:     COMMON   BANK0   BANK1   BANK2
  3199 ;;      Params:         0       0       0       0
  3200 ;;      Locals:         0       0       0       0
  3201 ;;      Temps:          1       0       0       0
  3202 ;;      Totals:         1       0       0       0
  3203 ;;Total ram usage:        1 bytes
  3204 ;; Hardware stack levels used: 1
  3205 ;; Hardware stack levels required when called: 5
  3206 ;; This function calls:
  3207 ;;		Nothing
  3208 ;; This function is called by:
  3209 ;;		_SYSTEM_Initialize
  3210 ;;		_I2C1_Enable
  3211 ;; This function uses a non-reentrant model
  3212 ;;
  3213                           
  3214     0287                     _I2C1_Initialize:	
  3215                           ;psect for function _I2C1_Initialize
  3216                           
  3217     0287                     l1728:	
  3218                           ;incstack = 0
  3219                           ; Regs used in _I2C1_Initialize: [wreg+status,2+status,0]
  3220                           
  3221                           
  3222                           ;mcc_generated_files/i2c1_slave.c: 110:     SSP1STAT = 0x40;
  3223     0287  3040               	movlw	64
  3224     0288  0143               	movlb	3	; select bank3
  3225     0289  008F               	movwf	15	;volatile
  3226     028A                     l1730:
  3227                           
  3228                           ;mcc_generated_files/i2c1_slave.c: 111:     SSP1CON1 |= 0x06;
  3229     028A  3006               	movlw	6
  3230     028B  00F3               	movwf	??_I2C1_Initialize
  3231     028C  0873               	movf	??_I2C1_Initialize,w
  3232     028D  0490               	iorwf	16,f	;volatile
  3233     028E                     l1732:
  3234                           
  3235                           ;mcc_generated_files/i2c1_slave.c: 112:     SSP1CON2 = 0x00;
  3236     028E  0191               	clrf	17	;volatile
  3237     028F                     l1734:
  3238                           
  3239                           ;mcc_generated_files/i2c1_slave.c: 113:     SSP1CON1bits.SSPEN = 0;
  3240     028F  1290               	bcf	16,5	;volatile
  3241     0290                     l212:
  3242     0290  0008               	return
  3243     0291                     __end_of_I2C1_Initialize:
  3244                           
  3245                           	psect	intentry
  3246     0004                     __pintentry:	
  3247 ;; *************** function _INTERRUPT_InterruptManager *****************
  3248 ;; Defined at:
  3249 ;;		line 52 in file "mcc_generated_files/interrupt_manager.c"
  3250 ;; Parameters:    Size  Location     Type
  3251 ;;		None
  3252 ;; Auto vars:     Size  Location     Type
  3253 ;;		None
  3254 ;; Return value:  Size  Location     Type
  3255 ;;                  1    wreg      void 
  3256 ;; Registers used:
  3257 ;;		wreg, fsr0l, fsr0h, status,2, status,0, pclath, cstack
  3258 ;; Tracked objects:
  3259 ;;		On entry : 0/0
  3260 ;;		On exit  : 0/0
  3261 ;;		Unchanged: 0/0
  3262 ;; Data sizes:     COMMON   BANK0   BANK1   BANK2
  3263 ;;      Params:         0       0       0       0
  3264 ;;      Locals:         0       0       0       0
  3265 ;;      Temps:          0       0       0       0
  3266 ;;      Totals:         0       0       0       0
  3267 ;;Total ram usage:        0 bytes
  3268 ;; Hardware stack levels used: 1
  3269 ;; Hardware stack levels required when called: 4
  3270 ;; This function calls:
  3271 ;;		NULL
  3272 ;;		_I2C1_Isr
  3273 ;;		_TMR0_ISR
  3274 ;; This function is called by:
  3275 ;;		Interrupt level 1
  3276 ;; This function uses a non-reentrant model
  3277 ;;
  3278                           
  3279     0004                     _INTERRUPT_InterruptManager:
  3280                           
  3281                           ;incstack = 0
  3282     0004  147E               	bsf	int$flags,0	;set compiler interrupt flag (level 1)
  3283                           
  3284                           ; Regs used in _INTERRUPT_InterruptManager: [wreg-fsr0h+status,2+status,0+pclath+cstack]
  3285     0005  3180               	pagesel	$
  3286     0006                     i1l1870:
  3287                           
  3288                           ;mcc_generated_files/interrupt_manager.c: 55:     if(PIE0bits.TMR0IE == 1 && PIR0bits.TM
      +                          R0IF == 1)
  3289     0006  014E               	movlb	14	; select bank14
  3290     0007  1E96               	btfss	22,5	;volatile
  3291     0008  280A               	goto	u50_21
  3292     0009  280B               	goto	u50_20
  3293     000A                     u50_21:
  3294     000A  2813               	goto	i1l99
  3295     000B                     u50_20:
  3296     000B                     i1l1872:
  3297     000B  1E8C               	btfss	12,5	;volatile
  3298     000C  280E               	goto	u51_21
  3299     000D  280F               	goto	u51_20
  3300     000E                     u51_21:
  3301     000E  2813               	goto	i1l99
  3302     000F                     u51_20:
  3303     000F                     i1l1874:
  3304                           
  3305                           ;mcc_generated_files/interrupt_manager.c: 56:     {;mcc_generated_files/interrupt_manage
      +                          r.c: 57:         TMR0_ISR();
  3306     000F  3182  2251  3180   	fcall	_TMR0_ISR
  3307                           
  3308                           ;mcc_generated_files/interrupt_manager.c: 58:     }
  3309     0012  282F               	goto	i1l107
  3310     0013                     i1l99:	
  3311                           ;mcc_generated_files/interrupt_manager.c: 59:     else if(INTCONbits.PEIE == 1)
  3312                           
  3313     0013  1F0B               	btfss	11,6	;volatile
  3314     0014  2816               	goto	u52_21
  3315     0015  2817               	goto	u52_20
  3316     0016                     u52_21:
  3317     0016  282F               	goto	i1l107
  3318     0017                     u52_20:
  3319     0017                     i1l1876:
  3320                           
  3321                           ;mcc_generated_files/interrupt_manager.c: 60:     {;mcc_generated_files/interrupt_manage
      +                          r.c: 61:         if(PIE1bits.BCL1IE == 1 && PIR1bits.BCL1IF == 1)
  3322     0017  1D17               	btfss	23,2	;volatile
  3323     0018  281A               	goto	u53_21
  3324     0019  281B               	goto	u53_20
  3325     001A                     u53_21:
  3326     001A  2826               	goto	i1l102
  3327     001B                     u53_20:
  3328     001B                     i1l1878:
  3329     001B  1D0D               	btfss	13,2	;volatile
  3330     001C  281E               	goto	u54_21
  3331     001D  281F               	goto	u54_20
  3332     001E                     u54_21:
  3333     001E  2826               	goto	i1l102
  3334     001F                     u54_20:
  3335     001F                     i1l1880:
  3336                           
  3337                           ;mcc_generated_files/interrupt_manager.c: 62:         {;mcc_generated_files/interrupt_ma
      +                          nager.c: 63:             MSSP1_InterruptHandler();
  3338     001F  0140               	movlb	0	; select bank0
  3339     0020  083A               	movf	_MSSP1_InterruptHandler+1,w
  3340     0021  008A               	movwf	10
  3341     0022  0839               	movf	_MSSP1_InterruptHandler,w
  3342     0023  000A               	callw
  3343     0024  3180               	pagesel	$
  3344                           
  3345                           ;mcc_generated_files/interrupt_manager.c: 64:         }
  3346     0025  282F               	goto	i1l107
  3347     0026                     i1l102:	
  3348                           ;mcc_generated_files/interrupt_manager.c: 65:         else if(PIE1bits.SSP1IE == 1 && PI
      +                          R1bits.SSP1IF == 1)
  3349                           
  3350     0026  1C97               	btfss	23,1	;volatile
  3351     0027  2829               	goto	u55_21
  3352     0028  282A               	goto	u55_20
  3353     0029                     u55_21:
  3354     0029  282F               	goto	i1l106
  3355     002A                     u55_20:
  3356     002A                     i1l1882:
  3357     002A  1C8D               	btfss	13,1	;volatile
  3358     002B  282D               	goto	u56_21
  3359     002C  282E               	goto	u56_20
  3360     002D                     u56_21:
  3361     002D  282F               	goto	i1l106
  3362     002E                     u56_20:
  3363     002E  281F               	goto	i1l1880
  3364     002F                     i1l106:	
  3365                           ;mcc_generated_files/interrupt_manager.c: 75:     {;mcc_generated_files/interrupt_manage
      +                          r.c: 77:     }
  3366                           
  3367     002F                     i1l107:
  3368     002F  107E               	bcf	int$flags,0	;clear compiler interrupt flag (level 1)
  3369     0030  0009               	retfie
  3370     0031                     __end_of_INTERRUPT_InterruptManager:
  3371                           
  3372                           	psect	text14
  3373     0251                     __ptext14:	
  3374 ;; *************** function _TMR0_ISR *****************
  3375 ;; Defined at:
  3376 ;;		line 127 in file "mcc_generated_files/tmr0.c"
  3377 ;; Parameters:    Size  Location     Type
  3378 ;;		None
  3379 ;; Auto vars:     Size  Location     Type
  3380 ;;		None
  3381 ;; Return value:  Size  Location     Type
  3382 ;;                  1    wreg      void 
  3383 ;; Registers used:
  3384 ;;		wreg, status,2, status,0, pclath, cstack
  3385 ;; Tracked objects:
  3386 ;;		On entry : 0/0
  3387 ;;		On exit  : 0/0
  3388 ;;		Unchanged: 0/0
  3389 ;; Data sizes:     COMMON   BANK0   BANK1   BANK2
  3390 ;;      Params:         0       0       0       0
  3391 ;;      Locals:         0       0       0       0
  3392 ;;      Temps:          0       0       0       0
  3393 ;;      Totals:         0       0       0       0
  3394 ;;Total ram usage:        0 bytes
  3395 ;; Hardware stack levels used: 1
  3396 ;; Hardware stack levels required when called: 1
  3397 ;; This function calls:
  3398 ;;		NULL
  3399 ;;		_TMR0_DefaultInterruptHandler
  3400 ;; This function is called by:
  3401 ;;		_INTERRUPT_InterruptManager
  3402 ;; This function uses a non-reentrant model
  3403 ;;
  3404                           
  3405     0251                     _TMR0_ISR:	
  3406                           ;psect for function _TMR0_ISR
  3407                           
  3408     0251                     i1l1804:	
  3409                           ;incstack = 0
  3410                           ; Regs used in _TMR0_ISR: [wreg+status,2+status,0+pclath+cstack]
  3411                           
  3412                           
  3413                           ;mcc_generated_files/tmr0.c: 130:     PIR0bits.TMR0IF = 0;
  3414     0251  014E               	movlb	14	; select bank14
  3415     0252  128C               	bcf	12,5	;volatile
  3416     0253                     i1l1806:
  3417                           
  3418                           ;mcc_generated_files/tmr0.c: 132:     if(TMR0_InterruptHandler)
  3419     0253  0140               	movlb	0	; select bank0
  3420     0254  083D               	movf	_TMR0_InterruptHandler,w
  3421     0255  043E               	iorwf	_TMR0_InterruptHandler+1,w
  3422     0256  1903               	btfsc	3,2
  3423     0257  2A59               	goto	u41_21
  3424     0258  2A5A               	goto	u41_20
  3425     0259                     u41_21:
  3426     0259  2A5F               	goto	i1l417
  3427     025A                     u41_20:
  3428     025A                     i1l1808:
  3429                           
  3430                           ;mcc_generated_files/tmr0.c: 133:     {;mcc_generated_files/tmr0.c: 134:         TMR0_In
      +                          terruptHandler();
  3431     025A  083E               	movf	_TMR0_InterruptHandler+1,w
  3432     025B  008A               	movwf	10
  3433     025C  083D               	movf	_TMR0_InterruptHandler,w
  3434     025D  000A               	callw
  3435     025E  3182               	pagesel	$
  3436     025F                     i1l417:
  3437     025F  0008               	return
  3438     0260                     __end_of_TMR0_ISR:
  3439                           
  3440                           	psect	text15
  3441     0207                     __ptext15:	
  3442 ;; *************** function _TMR0_DefaultInterruptHandler *****************
  3443 ;; Defined at:
  3444 ;;		line 148 in file "mcc_generated_files/tmr0.c"
  3445 ;; Parameters:    Size  Location     Type
  3446 ;;		None
  3447 ;; Auto vars:     Size  Location     Type
  3448 ;;		None
  3449 ;; Return value:  Size  Location     Type
  3450 ;;                  1    wreg      void 
  3451 ;; Registers used:
  3452 ;;		wreg, status,2, status,0
  3453 ;; Tracked objects:
  3454 ;;		On entry : 0/0
  3455 ;;		On exit  : 0/0
  3456 ;;		Unchanged: 0/0
  3457 ;; Data sizes:     COMMON   BANK0   BANK1   BANK2
  3458 ;;      Params:         0       0       0       0
  3459 ;;      Locals:         0       0       0       0
  3460 ;;      Temps:          1       0       0       0
  3461 ;;      Totals:         1       0       0       0
  3462 ;;Total ram usage:        1 bytes
  3463 ;; Hardware stack levels used: 1
  3464 ;; This function calls:
  3465 ;;		Nothing
  3466 ;; This function is called by:
  3467 ;;		_TMR0_Initialize
  3468 ;;		_TMR0_ISR
  3469 ;; This function uses a non-reentrant model
  3470 ;;
  3471                           
  3472     0207                     _TMR0_DefaultInterruptHandler:	
  3473                           ;psect for function _TMR0_DefaultInterruptHandler
  3474                           
  3475     0207                     i1l1780:	
  3476                           ;incstack = 0
  3477                           ; Regs used in _TMR0_DefaultInterruptHandler: [wreg+status,2+status,0]
  3478                           
  3479                           
  3480                           ;mcc_generated_files/tmr0.c: 151:      LED_timer++;
  3481     0207  3001               	movlw	1
  3482     0208  00F0               	movwf	??_TMR0_DefaultInterruptHandler
  3483     0209  0870               	movf	??_TMR0_DefaultInterruptHandler,w
  3484     020A  07FA               	addwf	_LED_timer,f
  3485                           
  3486                           ;mcc_generated_files/tmr0.c: 152:     if (LED_timer==10)
  3487     020B  300A               	movlw	10
  3488     020C  067A               	xorwf	_LED_timer,w
  3489     020D  1D03               	btfss	3,2
  3490     020E  2A10               	goto	u38_21
  3491     020F  2A11               	goto	u38_20
  3492     0210                     u38_21:
  3493     0210  2A13               	goto	i1l1782
  3494     0211                     u38_20:
  3495     0211                     i1l424:	
  3496                           ;mcc_generated_files/tmr0.c: 153:     {;mcc_generated_files/tmr0.c: 154:         do { LA
      +                          TAbits.LATA2 = 1; } while(0);
  3497                           
  3498     0211  0140               	movlb	0	; select bank0
  3499     0212  1518               	bsf	24,2	;volatile
  3500     0213                     i1l1782:
  3501                           
  3502                           ;mcc_generated_files/tmr0.c: 156:     if(LED_timer==20)
  3503     0213  3014               	movlw	20
  3504     0214  067A               	xorwf	_LED_timer,w
  3505     0215  1D03               	btfss	3,2
  3506     0216  2A18               	goto	u39_21
  3507     0217  2A19               	goto	u39_20
  3508     0218                     u39_21:
  3509     0218  2A1C               	goto	i1l429
  3510     0219                     u39_20:
  3511     0219                     i1l427:	
  3512                           ;mcc_generated_files/tmr0.c: 157:     {;mcc_generated_files/tmr0.c: 158:        do { LAT
      +                          Abits.LATA2 = 0; } while(0);
  3513                           
  3514     0219  0140               	movlb	0	; select bank0
  3515     021A  1118               	bcf	24,2	;volatile
  3516     021B                     i1l1784:
  3517                           
  3518                           ;mcc_generated_files/tmr0.c: 159:        LED_timer = 0;
  3519     021B  01FA               	clrf	_LED_timer
  3520     021C                     i1l429:
  3521     021C  0008               	return
  3522     021D                     __end_of_TMR0_DefaultInterruptHandler:
  3523                           
  3524                           	psect	text16
  3525     00BA                     __ptext16:	
  3526 ;; *************** function _I2C1_Isr *****************
  3527 ;; Defined at:
  3528 ;;		line 165 in file "mcc_generated_files/i2c1_slave.c"
  3529 ;; Parameters:    Size  Location     Type
  3530 ;;		None
  3531 ;; Auto vars:     Size  Location     Type
  3532 ;;		None
  3533 ;; Return value:  Size  Location     Type
  3534 ;;                  1    wreg      void 
  3535 ;; Registers used:
  3536 ;;		wreg, fsr0l, fsr0h, status,2, status,0, pclath, cstack
  3537 ;; Tracked objects:
  3538 ;;		On entry : 0/0
  3539 ;;		On exit  : 0/0
  3540 ;;		Unchanged: 0/0
  3541 ;; Data sizes:     COMMON   BANK0   BANK1   BANK2
  3542 ;;      Params:         0       0       0       0
  3543 ;;      Locals:         0       0       0       0
  3544 ;;      Temps:          2       0       0       0
  3545 ;;      Totals:         2       0       0       0
  3546 ;;Total ram usage:        2 bytes
  3547 ;; Hardware stack levels used: 1
  3548 ;; Hardware stack levels required when called: 3
  3549 ;; This function calls:
  3550 ;;		_I2C1_SlaveAddrCallBack
  3551 ;;		_I2C1_SlaveClearIrq
  3552 ;;		_I2C1_SlaveIsAddr
  3553 ;;		_I2C1_SlaveIsRead
  3554 ;;		_I2C1_SlaveIsRxBufFull
  3555 ;;		_I2C1_SlaveIsTxBufEmpty
  3556 ;;		_I2C1_SlaveRdCallBack
  3557 ;;		_I2C1_SlaveReleaseClock
  3558 ;;		_I2C1_SlaveWrCallBack
  3559 ;; This function is called by:
  3560 ;;		_I2C1_Open
  3561 ;;		_INTERRUPT_InterruptManager
  3562 ;; This function uses a non-reentrant model
  3563 ;;
  3564                           
  3565     00BA                     _I2C1_Isr:	
  3566                           ;psect for function _I2C1_Isr
  3567                           
  3568     00BA                     i1l1810:	
  3569                           ;incstack = 0
  3570                           ; Regs used in _I2C1_Isr: [wreg-fsr0h+status,2+status,0+pclath+cstack]
  3571                           
  3572                           
  3573                           ;mcc_generated_files/i2c1_slave.c: 167:     I2C1_SlaveClearIrq();
  3574     00BA  3182  22DC  3180   	fcall	_I2C1_SlaveClearIrq
  3575     00BD                     i1l1812:
  3576                           
  3577                           ;mcc_generated_files/i2c1_slave.c: 169:     if(I2C1_SlaveIsAddr())
  3578     00BD  3182  2298  3180   	fcall	_I2C1_SlaveIsAddr
  3579     00C0  3A00               	xorlw	0
  3580     00C1  1903               	skipnz
  3581     00C2  28C4               	goto	u42_21
  3582     00C3  28C5               	goto	u42_20
  3583     00C4                     u42_21:
  3584     00C4  28D3               	goto	i1l1820
  3585     00C5                     u42_20:
  3586     00C5                     i1l1814:
  3587                           
  3588                           ;mcc_generated_files/i2c1_slave.c: 170:     {;mcc_generated_files/i2c1_slave.c: 171:    
      +                               if(I2C1_SlaveIsRead())
  3589     00C5  3182  22CD  3180   	fcall	_I2C1_SlaveIsRead
  3590     00C8  3A00               	xorlw	0
  3591     00C9  1903               	skipnz
  3592     00CA  28CC               	goto	u43_21
  3593     00CB  28CD               	goto	u43_20
  3594     00CC                     u43_21:
  3595     00CC  28D0               	goto	i1l1818
  3596     00CD                     u43_20:
  3597     00CD                     i1l1816:
  3598                           
  3599                           ;mcc_generated_files/i2c1_slave.c: 172:         {;mcc_generated_files/i2c1_slave.c: 173:
      +                                       i2c1SlaveState = I2C1_ADDR_TX;
  3600     00CD  3001               	movlw	1
  3601     00CE  00F8               	movwf	_i2c1SlaveState	;volatile
  3602                           
  3603                           ;mcc_generated_files/i2c1_slave.c: 174:         }
  3604     00CF  2909               	goto	i1l1844
  3605     00D0                     i1l1818:
  3606                           
  3607                           ;mcc_generated_files/i2c1_slave.c: 176:         {;mcc_generated_files/i2c1_slave.c: 177:
      +                                       i2c1SlaveState = I2C1_ADDR_RX;
  3608     00D0  3002               	movlw	2
  3609     00D1  00F8               	movwf	_i2c1SlaveState	;volatile
  3610     00D2  2909               	goto	i1l1844
  3611     00D3                     i1l1820:
  3612                           
  3613                           ;mcc_generated_files/i2c1_slave.c: 181:     {;mcc_generated_files/i2c1_slave.c: 182:    
      +                               if(I2C1_SlaveIsRead())
  3614     00D3  3182  22CD  3180   	fcall	_I2C1_SlaveIsRead
  3615     00D6  3A00               	xorlw	0
  3616     00D7  1903               	skipnz
  3617     00D8  28DA               	goto	u44_21
  3618     00D9  28DB               	goto	u44_20
  3619     00DA                     u44_21:
  3620     00DA  28DE               	goto	i1l1824
  3621     00DB                     u44_20:
  3622     00DB                     i1l1822:
  3623                           
  3624                           ;mcc_generated_files/i2c1_slave.c: 183:         {;mcc_generated_files/i2c1_slave.c: 184:
      +                                       i2c1SlaveState = I2C1_DATA_TX;
  3625     00DB  3003               	movlw	3
  3626     00DC  00F8               	movwf	_i2c1SlaveState	;volatile
  3627                           
  3628                           ;mcc_generated_files/i2c1_slave.c: 185:         }
  3629     00DD  2909               	goto	i1l1844
  3630     00DE                     i1l1824:
  3631                           
  3632                           ;mcc_generated_files/i2c1_slave.c: 187:         {;mcc_generated_files/i2c1_slave.c: 188:
      +                                       i2c1SlaveState = I2C1_DATA_RX;
  3633     00DE  3004               	movlw	4
  3634     00DF  00F8               	movwf	_i2c1SlaveState	;volatile
  3635     00E0  2909               	goto	i1l1844
  3636     00E1                     i1l1826:
  3637                           
  3638                           ;mcc_generated_files/i2c1_slave.c: 195:             I2C1_SlaveAddrCallBack();
  3639     00E1  3182  227A  3180   	fcall	_I2C1_SlaveAddrCallBack
  3640     00E4                     i1l1828:
  3641                           
  3642                           ;mcc_generated_files/i2c1_slave.c: 196:             if(I2C1_SlaveIsTxBufEmpty())
  3643     00E4  3182  2291  3180   	fcall	_I2C1_SlaveIsTxBufEmpty
  3644     00E7  3A00               	xorlw	0
  3645     00E8  1903               	skipnz
  3646     00E9  28EB               	goto	u45_21
  3647     00EA  28EC               	goto	u45_20
  3648     00EB                     u45_21:
  3649     00EB  291F               	goto	i1l1846
  3650     00EC                     u45_20:
  3651     00EC                     i1l1830:
  3652                           
  3653                           ;mcc_generated_files/i2c1_slave.c: 197:             {;mcc_generated_files/i2c1_slave.c: 
      +                          198:                 I2C1_SlaveWrCallBack();
  3654     00EC  3182  2260  3180   	fcall	_I2C1_SlaveWrCallBack
  3655     00EF  291F               	goto	i1l1846
  3656     00F0                     i1l1832:
  3657                           
  3658                           ;mcc_generated_files/i2c1_slave.c: 202:             I2C1_SlaveAddrCallBack();
  3659     00F0  3182  227A  3180   	fcall	_I2C1_SlaveAddrCallBack
  3660                           
  3661                           ;mcc_generated_files/i2c1_slave.c: 203:             break;
  3662     00F3  291F               	goto	i1l1846
  3663     00F4                     i1l1834:
  3664                           
  3665                           ;mcc_generated_files/i2c1_slave.c: 205:             if(I2C1_SlaveIsTxBufEmpty())
  3666     00F4  3182  2291  3180   	fcall	_I2C1_SlaveIsTxBufEmpty
  3667     00F7  3A00               	xorlw	0
  3668     00F8  1903               	skipnz
  3669     00F9  28FB               	goto	u46_21
  3670     00FA  28FC               	goto	u46_20
  3671     00FB                     u46_21:
  3672     00FB  291F               	goto	i1l1846
  3673     00FC                     u46_20:
  3674     00FC  28EC               	goto	i1l1830
  3675     00FD                     i1l1838:
  3676                           
  3677                           ;mcc_generated_files/i2c1_slave.c: 211:             if(I2C1_SlaveIsRxBufFull())
  3678     00FD  3182  22D2  3180   	fcall	_I2C1_SlaveIsRxBufFull
  3679     0100  3A00               	xorlw	0
  3680     0101  1903               	skipnz
  3681     0102  2904               	goto	u47_21
  3682     0103  2905               	goto	u47_20
  3683     0104                     u47_21:
  3684     0104  291F               	goto	i1l1846
  3685     0105                     u47_20:
  3686     0105                     i1l1840:
  3687                           
  3688                           ;mcc_generated_files/i2c1_slave.c: 212:             {;mcc_generated_files/i2c1_slave.c: 
      +                          213:                 I2C1_SlaveRdCallBack();
  3689     0105  3182  226D  3180   	fcall	_I2C1_SlaveRdCallBack
  3690     0108  291F               	goto	i1l1846
  3691     0109                     i1l1844:
  3692     0109  0878               	movf	_i2c1SlaveState,w	;volatile
  3693     010A  00F1               	movwf	??_I2C1_Isr
  3694     010B  01F2               	clrf	??_I2C1_Isr+1
  3695                           
  3696                           ; Switch on 2 bytes has been partitioned into a top level switch of size 1, and 1 sub-sw
      +                          itches
  3697                           ; Switch size 1, requested type "simple"
  3698                           ; Number of cases is 1, Range of values is 0 to 0
  3699                           ; switch strategies available:
  3700                           ; Name         Instructions Cycles
  3701                           ; simple_byte            4     3 (average)
  3702                           ; direct_byte            8     6 (fixed)
  3703                           ; jumptable            260     6 (fixed)
  3704                           ;	Chosen strategy is simple_byte
  3705     010C  0872               	movf	??_I2C1_Isr+1,w
  3706     010D  3A00               	xorlw	0	; case 0
  3707     010E  1903               	skipnz
  3708     010F  2911               	goto	i1l2102
  3709     0110  291F               	goto	i1l1846
  3710     0111                     i1l2102:
  3711                           
  3712                           ; Switch size 1, requested type "simple"
  3713                           ; Number of cases is 4, Range of values is 1 to 4
  3714                           ; switch strategies available:
  3715                           ; Name         Instructions Cycles
  3716                           ; simple_byte           13     7 (average)
  3717                           ; direct_byte           17     9 (fixed)
  3718                           ; jumptable            263     9 (fixed)
  3719                           ;	Chosen strategy is simple_byte
  3720     0111  0871               	movf	??_I2C1_Isr,w
  3721     0112  3A01               	xorlw	1	; case 1
  3722     0113  1903               	skipnz
  3723     0114  28E1               	goto	i1l1826
  3724     0115  3A03               	xorlw	3	; case 2
  3725     0116  1903               	skipnz
  3726     0117  28F0               	goto	i1l1832
  3727     0118  3A01               	xorlw	1	; case 3
  3728     0119  1903               	skipnz
  3729     011A  28F4               	goto	i1l1834
  3730     011B  3A07               	xorlw	7	; case 4
  3731     011C  1903               	skipnz
  3732     011D  28FD               	goto	i1l1838
  3733     011E  291F               	goto	i1l1846
  3734     011F                     i1l1846:
  3735                           
  3736                           ;mcc_generated_files/i2c1_slave.c: 219:     I2C1_SlaveReleaseClock();
  3737     011F  3182  22D9  3180   	fcall	_I2C1_SlaveReleaseClock
  3738     0122                     i1l255:
  3739     0122  0008               	return
  3740     0123                     __end_of_I2C1_Isr:
  3741                           
  3742                           	psect	text17
  3743     0260                     __ptext17:	
  3744 ;; *************** function _I2C1_SlaveWrCallBack *****************
  3745 ;; Defined at:
  3746 ;;		line 250 in file "mcc_generated_files/i2c1_slave.c"
  3747 ;; Parameters:    Size  Location     Type
  3748 ;;		None
  3749 ;; Auto vars:     Size  Location     Type
  3750 ;;		None
  3751 ;; Return value:  Size  Location     Type
  3752 ;;                  1    wreg      void 
  3753 ;; Registers used:
  3754 ;;		wreg, status,2, status,0, pclath, cstack
  3755 ;; Tracked objects:
  3756 ;;		On entry : 0/0
  3757 ;;		On exit  : 0/0
  3758 ;;		Unchanged: 0/0
  3759 ;; Data sizes:     COMMON   BANK0   BANK1   BANK2
  3760 ;;      Params:         0       0       0       0
  3761 ;;      Locals:         0       0       0       0
  3762 ;;      Temps:          0       0       0       0
  3763 ;;      Totals:         0       0       0       0
  3764 ;;Total ram usage:        0 bytes
  3765 ;; Hardware stack levels used: 1
  3766 ;; Hardware stack levels required when called: 2
  3767 ;; This function calls:
  3768 ;;		NULL
  3769 ;;		_I2C1_SlaveDefWrInterruptHandler
  3770 ;; This function is called by:
  3771 ;;		_I2C1_Isr
  3772 ;; This function uses a non-reentrant model
  3773 ;;
  3774                           
  3775     0260                     _I2C1_SlaveWrCallBack:	
  3776                           ;psect for function _I2C1_SlaveWrCallBack
  3777                           
  3778     0260                     i1l1754:	
  3779                           ;incstack = 0
  3780                           ; Regs used in _I2C1_SlaveWrCallBack: [wreg+status,2+status,0+pclath+cstack]
  3781                           
  3782                           
  3783                           ;mcc_generated_files/i2c1_slave.c: 252:     if (I2C1_SlaveWrInterruptHandler)
  3784     0260  0140               	movlb	0	; select bank0
  3785     0261  0835               	movf	_I2C1_SlaveWrInterruptHandler,w
  3786     0262  0436               	iorwf	_I2C1_SlaveWrInterruptHandler+1,w
  3787     0263  1903               	btfsc	3,2
  3788     0264  2A66               	goto	u36_21
  3789     0265  2A67               	goto	u36_20
  3790     0266                     u36_21:
  3791     0266  2A6C               	goto	i1l275
  3792     0267                     u36_20:
  3793     0267                     i1l1756:
  3794                           
  3795                           ;mcc_generated_files/i2c1_slave.c: 253:     {;mcc_generated_files/i2c1_slave.c: 254:    
      +                               I2C1_SlaveWrInterruptHandler();
  3796     0267  0836               	movf	_I2C1_SlaveWrInterruptHandler+1,w
  3797     0268  008A               	movwf	10
  3798     0269  0835               	movf	_I2C1_SlaveWrInterruptHandler,w
  3799     026A  000A               	callw
  3800     026B  3182               	pagesel	$
  3801     026C                     i1l275:
  3802     026C  0008               	return
  3803     026D                     __end_of_I2C1_SlaveWrCallBack:
  3804                           
  3805                           	psect	text18
  3806     02C3                     __ptext18:	
  3807 ;; *************** function _I2C1_SlaveDefWrInterruptHandler *****************
  3808 ;; Defined at:
  3809 ;;		line 258 in file "mcc_generated_files/i2c1_slave.c"
  3810 ;; Parameters:    Size  Location     Type
  3811 ;;		None
  3812 ;; Auto vars:     Size  Location     Type
  3813 ;;		None
  3814 ;; Return value:  Size  Location     Type
  3815 ;;                  1    wreg      void 
  3816 ;; Registers used:
  3817 ;;		wreg, status,2, status,0, pclath, cstack
  3818 ;; Tracked objects:
  3819 ;;		On entry : 0/0
  3820 ;;		On exit  : 0/0
  3821 ;;		Unchanged: 0/0
  3822 ;; Data sizes:     COMMON   BANK0   BANK1   BANK2
  3823 ;;      Params:         0       0       0       0
  3824 ;;      Locals:         0       0       0       0
  3825 ;;      Temps:          0       0       0       0
  3826 ;;      Totals:         0       0       0       0
  3827 ;;Total ram usage:        0 bytes
  3828 ;; Hardware stack levels used: 1
  3829 ;; Hardware stack levels required when called: 1
  3830 ;; This function calls:
  3831 ;;		_I2C1_SlaveSendTxData
  3832 ;; This function is called by:
  3833 ;;		_I2C1_Open
  3834 ;;		_I2C1_SlaveWrCallBack
  3835 ;; This function uses a non-reentrant model
  3836 ;;
  3837                           
  3838     02C3                     _I2C1_SlaveDefWrInterruptHandler:	
  3839                           ;psect for function _I2C1_SlaveDefWrInterruptHandler
  3840                           
  3841     02C3                     i1l1590:	
  3842                           ;incstack = 0
  3843                           ; Regs used in _I2C1_SlaveDefWrInterruptHandler: [wreg+status,2+status,0+pclath+cstack]
  3844                           
  3845                           
  3846                           ;mcc_generated_files/i2c1_slave.c: 259:     I2C1_SlaveSendTxData(i2c1WrData);
  3847     02C3  0879               	movf	_i2c1WrData,w	;volatile
  3848     02C4  3182  22C8  3182   	fcall	_I2C1_SlaveSendTxData
  3849     02C7                     i1l278:
  3850     02C7  0008               	return
  3851     02C8                     __end_of_I2C1_SlaveDefWrInterruptHandler:
  3852                           
  3853                           	psect	text19
  3854     02C8                     __ptext19:	
  3855 ;; *************** function _I2C1_SlaveSendTxData *****************
  3856 ;; Defined at:
  3857 ;;		line 391 in file "mcc_generated_files/i2c1_slave.c"
  3858 ;; Parameters:    Size  Location     Type
  3859 ;;  data            1    wreg     unsigned char 
  3860 ;; Auto vars:     Size  Location     Type
  3861 ;;  data            1    0[COMMON] unsigned char 
  3862 ;; Return value:  Size  Location     Type
  3863 ;;                  1    wreg      void 
  3864 ;; Registers used:
  3865 ;;		wreg
  3866 ;; Tracked objects:
  3867 ;;		On entry : 0/0
  3868 ;;		On exit  : 0/0
  3869 ;;		Unchanged: 0/0
  3870 ;; Data sizes:     COMMON   BANK0   BANK1   BANK2
  3871 ;;      Params:         0       0       0       0
  3872 ;;      Locals:         1       0       0       0
  3873 ;;      Temps:          0       0       0       0
  3874 ;;      Totals:         1       0       0       0
  3875 ;;Total ram usage:        1 bytes
  3876 ;; Hardware stack levels used: 1
  3877 ;; This function calls:
  3878 ;;		Nothing
  3879 ;; This function is called by:
  3880 ;;		_I2C1_SlaveDefWrInterruptHandler
  3881 ;;		_I2C1_Write
  3882 ;; This function uses a non-reentrant model
  3883 ;;
  3884                           
  3885     02C8                     _I2C1_SlaveSendTxData:	
  3886                           ;psect for function _I2C1_SlaveSendTxData
  3887                           
  3888                           
  3889                           ;incstack = 0
  3890                           ; Regs used in _I2C1_SlaveSendTxData: [wreg]
  3891                           ;I2C1_SlaveSendTxData@data stored from wreg
  3892     02C8  00F0               	movwf	I2C1_SlaveSendTxData@data
  3893     02C9                     i1l1586:
  3894                           
  3895                           ;mcc_generated_files/i2c1_slave.c: 391: static __attribute__((inline)) void I2C1_SlaveSe
      +                          ndTxData(uint8_t data);mcc_generated_files/i2c1_slave.c: 392: {;mcc_generated_files/i2c1
      +                          _slave.c: 393:     SSP1BUF = data;
  3896     02C9  0870               	movf	I2C1_SlaveSendTxData@data,w
  3897     02CA  0143               	movlb	3	; select bank3
  3898     02CB  008C               	movwf	12	;volatile
  3899     02CC                     i1l354:
  3900     02CC  0008               	return
  3901     02CD                     __end_of_I2C1_SlaveSendTxData:
  3902                           
  3903                           	psect	text20
  3904     02D9                     __ptext20:	
  3905 ;; *************** function _I2C1_SlaveReleaseClock *****************
  3906 ;; Defined at:
  3907 ;;		line 361 in file "mcc_generated_files/i2c1_slave.c"
  3908 ;; Parameters:    Size  Location     Type
  3909 ;;		None
  3910 ;; Auto vars:     Size  Location     Type
  3911 ;;		None
  3912 ;; Return value:  Size  Location     Type
  3913 ;;                  1    wreg      void 
  3914 ;; Registers used:
  3915 ;;		None
  3916 ;; Tracked objects:
  3917 ;;		On entry : 0/0
  3918 ;;		On exit  : 0/0
  3919 ;;		Unchanged: 0/0
  3920 ;; Data sizes:     COMMON   BANK0   BANK1   BANK2
  3921 ;;      Params:         0       0       0       0
  3922 ;;      Locals:         0       0       0       0
  3923 ;;      Temps:          0       0       0       0
  3924 ;;      Totals:         0       0       0       0
  3925 ;;Total ram usage:        0 bytes
  3926 ;; Hardware stack levels used: 1
  3927 ;; This function calls:
  3928 ;;		Nothing
  3929 ;; This function is called by:
  3930 ;;		_I2C1_Isr
  3931 ;; This function uses a non-reentrant model
  3932 ;;
  3933                           
  3934     02D9                     _I2C1_SlaveReleaseClock:	
  3935                           ;psect for function _I2C1_SlaveReleaseClock
  3936                           
  3937     02D9                     i1l1766:	
  3938                           ;incstack = 0
  3939                           ; Regs used in _I2C1_SlaveReleaseClock: []
  3940                           
  3941                           
  3942                           ;mcc_generated_files/i2c1_slave.c: 363:     SSP1CON1bits.CKP = 1;
  3943     02D9  0143               	movlb	3	; select bank3
  3944     02DA  1610               	bsf	16,4	;volatile
  3945     02DB                     i1l336:
  3946     02DB  0008               	return
  3947     02DC                     __end_of_I2C1_SlaveReleaseClock:
  3948                           
  3949                           	psect	text21
  3950     026D                     __ptext21:	
  3951 ;; *************** function _I2C1_SlaveRdCallBack *****************
  3952 ;; Defined at:
  3953 ;;		line 233 in file "mcc_generated_files/i2c1_slave.c"
  3954 ;; Parameters:    Size  Location     Type
  3955 ;;		None
  3956 ;; Auto vars:     Size  Location     Type
  3957 ;;		None
  3958 ;; Return value:  Size  Location     Type
  3959 ;;                  1    wreg      void 
  3960 ;; Registers used:
  3961 ;;		wreg, status,2, status,0, pclath, cstack
  3962 ;; Tracked objects:
  3963 ;;		On entry : 0/0
  3964 ;;		On exit  : 0/0
  3965 ;;		Unchanged: 0/0
  3966 ;; Data sizes:     COMMON   BANK0   BANK1   BANK2
  3967 ;;      Params:         0       0       0       0
  3968 ;;      Locals:         0       0       0       0
  3969 ;;      Temps:          0       0       0       0
  3970 ;;      Totals:         0       0       0       0
  3971 ;;Total ram usage:        0 bytes
  3972 ;; Hardware stack levels used: 1
  3973 ;; Hardware stack levels required when called: 2
  3974 ;; This function calls:
  3975 ;;		NULL
  3976 ;;		_I2C1_SlaveDefRdInterruptHandler
  3977 ;; This function is called by:
  3978 ;;		_I2C1_Isr
  3979 ;; This function uses a non-reentrant model
  3980 ;;
  3981                           
  3982     026D                     _I2C1_SlaveRdCallBack:	
  3983                           ;psect for function _I2C1_SlaveRdCallBack
  3984                           
  3985     026D                     i1l1762:	
  3986                           ;incstack = 0
  3987                           ; Regs used in _I2C1_SlaveRdCallBack: [wreg+status,2+status,0+pclath+cstack]
  3988                           
  3989                           
  3990                           ;mcc_generated_files/i2c1_slave.c: 235:     if (I2C1_SlaveRdInterruptHandler)
  3991     026D  0140               	movlb	0	; select bank0
  3992     026E  0837               	movf	_I2C1_SlaveRdInterruptHandler,w
  3993     026F  0438               	iorwf	_I2C1_SlaveRdInterruptHandler+1,w
  3994     0270  1903               	btfsc	3,2
  3995     0271  2A73               	goto	u37_21
  3996     0272  2A74               	goto	u37_20
  3997     0273                     u37_21:
  3998     0273  2A79               	goto	i1l265
  3999     0274                     u37_20:
  4000     0274                     i1l1764:
  4001                           
  4002                           ;mcc_generated_files/i2c1_slave.c: 236:     {;mcc_generated_files/i2c1_slave.c: 237:    
      +                               I2C1_SlaveRdInterruptHandler();
  4003     0274  0838               	movf	_I2C1_SlaveRdInterruptHandler+1,w
  4004     0275  008A               	movwf	10
  4005     0276  0837               	movf	_I2C1_SlaveRdInterruptHandler,w
  4006     0277  000A               	callw
  4007     0278  3182               	pagesel	$
  4008     0279                     i1l265:
  4009     0279  0008               	return
  4010     027A                     __end_of_I2C1_SlaveRdCallBack:
  4011                           
  4012                           	psect	text22
  4013     02B7                     __ptext22:	
  4014 ;; *************** function _I2C1_SlaveDefRdInterruptHandler *****************
  4015 ;; Defined at:
  4016 ;;		line 241 in file "mcc_generated_files/i2c1_slave.c"
  4017 ;; Parameters:    Size  Location     Type
  4018 ;;		None
  4019 ;; Auto vars:     Size  Location     Type
  4020 ;;		None
  4021 ;; Return value:  Size  Location     Type
  4022 ;;                  1    wreg      void 
  4023 ;; Registers used:
  4024 ;;		wreg, pclath, cstack
  4025 ;; Tracked objects:
  4026 ;;		On entry : 0/0
  4027 ;;		On exit  : 0/0
  4028 ;;		Unchanged: 0/0
  4029 ;; Data sizes:     COMMON   BANK0   BANK1   BANK2
  4030 ;;      Params:         0       0       0       0
  4031 ;;      Locals:         0       0       0       0
  4032 ;;      Temps:          0       0       0       0
  4033 ;;      Totals:         0       0       0       0
  4034 ;;Total ram usage:        0 bytes
  4035 ;; Hardware stack levels used: 1
  4036 ;; Hardware stack levels required when called: 1
  4037 ;; This function calls:
  4038 ;;		_I2C1_SlaveGetRxData
  4039 ;; This function is called by:
  4040 ;;		_I2C1_Open
  4041 ;;		_I2C1_SlaveRdCallBack
  4042 ;; This function uses a non-reentrant model
  4043 ;;
  4044                           
  4045     02B7                     _I2C1_SlaveDefRdInterruptHandler:	
  4046                           ;psect for function _I2C1_SlaveDefRdInterruptHandler
  4047                           
  4048     02B7                     i1l1588:	
  4049                           ;incstack = 0
  4050                           ; Regs used in _I2C1_SlaveDefRdInterruptHandler: [wreg+pclath+cstack]
  4051                           
  4052                           
  4053                           ;mcc_generated_files/i2c1_slave.c: 242:     i2c1RdData = I2C1_SlaveGetRxData();
  4054     02B7  3182  22DF  3182   	fcall	_I2C1_SlaveGetRxData
  4055     02BA  0140               	movlb	0	; select bank0
  4056     02BB  00BC               	movwf	_i2c1RdData	;volatile
  4057     02BC                     i1l268:
  4058     02BC  0008               	return
  4059     02BD                     __end_of_I2C1_SlaveDefRdInterruptHandler:
  4060                           
  4061                           	psect	text23
  4062     0291                     __ptext23:	
  4063 ;; *************** function _I2C1_SlaveIsTxBufEmpty *****************
  4064 ;; Defined at:
  4065 ;;		line 381 in file "mcc_generated_files/i2c1_slave.c"
  4066 ;; Parameters:    Size  Location     Type
  4067 ;;		None
  4068 ;; Auto vars:     Size  Location     Type
  4069 ;;		None
  4070 ;; Return value:  Size  Location     Type
  4071 ;;                  1    wreg      _Bool 
  4072 ;; Registers used:
  4073 ;;		wreg, status,0
  4074 ;; Tracked objects:
  4075 ;;		On entry : 0/0
  4076 ;;		On exit  : 0/0
  4077 ;;		Unchanged: 0/0
  4078 ;; Data sizes:     COMMON   BANK0   BANK1   BANK2
  4079 ;;      Params:         0       0       0       0
  4080 ;;      Locals:         0       0       0       0
  4081 ;;      Temps:          0       0       0       0
  4082 ;;      Totals:         0       0       0       0
  4083 ;;Total ram usage:        0 bytes
  4084 ;; Hardware stack levels used: 1
  4085 ;; This function calls:
  4086 ;;		Nothing
  4087 ;; This function is called by:
  4088 ;;		_I2C1_Isr
  4089 ;; This function uses a non-reentrant model
  4090 ;;
  4091                           
  4092     0291                     _I2C1_SlaveIsTxBufEmpty:	
  4093                           ;psect for function _I2C1_SlaveIsTxBufEmpty
  4094                           
  4095     0291                     i1l1750:	
  4096                           ;incstack = 0
  4097                           ; Regs used in _I2C1_SlaveIsTxBufEmpty: [wreg+status,0]
  4098                           
  4099                           
  4100                           ;mcc_generated_files/i2c1_slave.c: 383:     return !SSP1STATbits.BF;
  4101     0291  1003               	clrc
  4102     0292  0143               	movlb	3	; select bank3
  4103     0293  1C0F               	btfss	15,0	;volatile
  4104     0294  1403               	setc
  4105     0295  3000               	movlw	0
  4106     0296  3D09               	addwfc	9,w
  4107     0297                     i1l348:
  4108     0297  0008               	return
  4109     0298                     __end_of_I2C1_SlaveIsTxBufEmpty:
  4110                           
  4111                           	psect	text24
  4112     02D2                     __ptext24:	
  4113 ;; *************** function _I2C1_SlaveIsRxBufFull *****************
  4114 ;; Defined at:
  4115 ;;		line 386 in file "mcc_generated_files/i2c1_slave.c"
  4116 ;; Parameters:    Size  Location     Type
  4117 ;;		None
  4118 ;; Auto vars:     Size  Location     Type
  4119 ;;		None
  4120 ;; Return value:  Size  Location     Type
  4121 ;;                  1    wreg      _Bool 
  4122 ;; Registers used:
  4123 ;;		wreg, status,2, status,0
  4124 ;; Tracked objects:
  4125 ;;		On entry : 0/0
  4126 ;;		On exit  : 0/0
  4127 ;;		Unchanged: 0/0
  4128 ;; Data sizes:     COMMON   BANK0   BANK1   BANK2
  4129 ;;      Params:         0       0       0       0
  4130 ;;      Locals:         0       0       0       0
  4131 ;;      Temps:          0       0       0       0
  4132 ;;      Totals:         0       0       0       0
  4133 ;;Total ram usage:        0 bytes
  4134 ;; Hardware stack levels used: 1
  4135 ;; This function calls:
  4136 ;;		Nothing
  4137 ;; This function is called by:
  4138 ;;		_I2C1_Isr
  4139 ;; This function uses a non-reentrant model
  4140 ;;
  4141                           
  4142     02D2                     _I2C1_SlaveIsRxBufFull:	
  4143                           ;psect for function _I2C1_SlaveIsRxBufFull
  4144                           
  4145     02D2                     i1l1758:	
  4146                           ;incstack = 0
  4147                           ; Regs used in _I2C1_SlaveIsRxBufFull: [wreg+status,2+status,0]
  4148                           
  4149                           
  4150                           ;mcc_generated_files/i2c1_slave.c: 388:     return SSP1STATbits.BF;
  4151     02D2  0143               	movlb	3	; select bank3
  4152     02D3  080F               	movf	15,w	;volatile
  4153     02D4  3901               	andlw	1
  4154     02D5                     i1l351:
  4155     02D5  0008               	return
  4156     02D6                     __end_of_I2C1_SlaveIsRxBufFull:
  4157                           
  4158                           	psect	text25
  4159     02CD                     __ptext25:	
  4160 ;; *************** function _I2C1_SlaveIsRead *****************
  4161 ;; Defined at:
  4162 ;;		line 351 in file "mcc_generated_files/i2c1_slave.c"
  4163 ;; Parameters:    Size  Location     Type
  4164 ;;		None
  4165 ;; Auto vars:     Size  Location     Type
  4166 ;;		None
  4167 ;; Return value:  Size  Location     Type
  4168 ;;                  1    wreg      _Bool 
  4169 ;; Registers used:
  4170 ;;		wreg, status,2, status,0
  4171 ;; Tracked objects:
  4172 ;;		On entry : 0/0
  4173 ;;		On exit  : 0/0
  4174 ;;		Unchanged: 0/0
  4175 ;; Data sizes:     COMMON   BANK0   BANK1   BANK2
  4176 ;;      Params:         0       0       0       0
  4177 ;;      Locals:         0       0       0       0
  4178 ;;      Temps:          0       0       0       0
  4179 ;;      Totals:         0       0       0       0
  4180 ;;Total ram usage:        0 bytes
  4181 ;; Hardware stack levels used: 1
  4182 ;; This function calls:
  4183 ;;		Nothing
  4184 ;; This function is called by:
  4185 ;;		_I2C1_Isr
  4186 ;;		_I2C1_IsRead
  4187 ;; This function uses a non-reentrant model
  4188 ;;
  4189                           
  4190     02CD                     _I2C1_SlaveIsRead:	
  4191                           ;psect for function _I2C1_SlaveIsRead
  4192                           
  4193     02CD                     i1l1736:	
  4194                           ;incstack = 0
  4195                           ; Regs used in _I2C1_SlaveIsRead: [wreg+status,2+status,0]
  4196                           
  4197                           
  4198                           ;mcc_generated_files/i2c1_slave.c: 353:     return (SSP1STATbits.R_nW);
  4199     02CD  0143               	movlb	3	; select bank3
  4200     02CE  0C0F               	rrf	15,w	;volatile
  4201     02CF  0C89               	rrf	9,f
  4202     02D0  3901               	andlw	1
  4203     02D1                     i1l330:
  4204     02D1  0008               	return
  4205     02D2                     __end_of_I2C1_SlaveIsRead:
  4206                           
  4207                           	psect	text26
  4208     0298                     __ptext26:	
  4209 ;; *************** function _I2C1_SlaveIsAddr *****************
  4210 ;; Defined at:
  4211 ;;		line 346 in file "mcc_generated_files/i2c1_slave.c"
  4212 ;; Parameters:    Size  Location     Type
  4213 ;;		None
  4214 ;; Auto vars:     Size  Location     Type
  4215 ;;		None
  4216 ;; Return value:  Size  Location     Type
  4217 ;;                  1    wreg      _Bool 
  4218 ;; Registers used:
  4219 ;;		wreg, status,0
  4220 ;; Tracked objects:
  4221 ;;		On entry : 0/0
  4222 ;;		On exit  : 0/0
  4223 ;;		Unchanged: 0/0
  4224 ;; Data sizes:     COMMON   BANK0   BANK1   BANK2
  4225 ;;      Params:         0       0       0       0
  4226 ;;      Locals:         0       0       0       0
  4227 ;;      Temps:          0       0       0       0
  4228 ;;      Totals:         0       0       0       0
  4229 ;;Total ram usage:        0 bytes
  4230 ;; Hardware stack levels used: 1
  4231 ;; This function calls:
  4232 ;;		Nothing
  4233 ;; This function is called by:
  4234 ;;		_I2C1_Isr
  4235 ;; This function uses a non-reentrant model
  4236 ;;
  4237                           
  4238     0298                     _I2C1_SlaveIsAddr:	
  4239                           ;psect for function _I2C1_SlaveIsAddr
  4240                           
  4241     0298                     i1l1742:	
  4242                           ;incstack = 0
  4243                           ; Regs used in _I2C1_SlaveIsAddr: [wreg+status,0]
  4244                           
  4245                           
  4246                           ;mcc_generated_files/i2c1_slave.c: 348:     return !(SSP1STATbits.D_nA);
  4247     0298  1003               	clrc
  4248     0299  0143               	movlb	3	; select bank3
  4249     029A  1E8F               	btfss	15,5	;volatile
  4250     029B  1403               	setc
  4251     029C  3000               	movlw	0
  4252     029D  3D09               	addwfc	9,w
  4253     029E                     i1l327:
  4254     029E  0008               	return
  4255     029F                     __end_of_I2C1_SlaveIsAddr:
  4256                           
  4257                           	psect	text27
  4258     02DC                     __ptext27:	
  4259 ;; *************** function _I2C1_SlaveClearIrq *****************
  4260 ;; Defined at:
  4261 ;;		line 356 in file "mcc_generated_files/i2c1_slave.c"
  4262 ;; Parameters:    Size  Location     Type
  4263 ;;		None
  4264 ;; Auto vars:     Size  Location     Type
  4265 ;;		None
  4266 ;; Return value:  Size  Location     Type
  4267 ;;                  1    wreg      void 
  4268 ;; Registers used:
  4269 ;;		None
  4270 ;; Tracked objects:
  4271 ;;		On entry : 0/0
  4272 ;;		On exit  : 0/0
  4273 ;;		Unchanged: 0/0
  4274 ;; Data sizes:     COMMON   BANK0   BANK1   BANK2
  4275 ;;      Params:         0       0       0       0
  4276 ;;      Locals:         0       0       0       0
  4277 ;;      Temps:          0       0       0       0
  4278 ;;      Totals:         0       0       0       0
  4279 ;;Total ram usage:        0 bytes
  4280 ;; Hardware stack levels used: 1
  4281 ;; This function calls:
  4282 ;;		Nothing
  4283 ;; This function is called by:
  4284 ;;		_I2C1_Isr
  4285 ;; This function uses a non-reentrant model
  4286 ;;
  4287                           
  4288     02DC                     _I2C1_SlaveClearIrq:	
  4289                           ;psect for function _I2C1_SlaveClearIrq
  4290                           
  4291     02DC                     i1l1740:	
  4292                           ;incstack = 0
  4293                           ; Regs used in _I2C1_SlaveClearIrq: []
  4294                           
  4295                           
  4296                           ;mcc_generated_files/i2c1_slave.c: 358:     PIR1bits.SSP1IF = 0;
  4297     02DC  014E               	movlb	14	; select bank14
  4298     02DD  108D               	bcf	13,1	;volatile
  4299     02DE                     i1l333:
  4300     02DE  0008               	return
  4301     02DF                     __end_of_I2C1_SlaveClearIrq:
  4302                           
  4303                           	psect	text28
  4304     027A                     __ptext28:	
  4305 ;; *************** function _I2C1_SlaveAddrCallBack *****************
  4306 ;; Defined at:
  4307 ;;		line 267 in file "mcc_generated_files/i2c1_slave.c"
  4308 ;; Parameters:    Size  Location     Type
  4309 ;;		None
  4310 ;; Auto vars:     Size  Location     Type
  4311 ;;		None
  4312 ;; Return value:  Size  Location     Type
  4313 ;;                  1    wreg      void 
  4314 ;; Registers used:
  4315 ;;		wreg, status,2, status,0, pclath, cstack
  4316 ;; Tracked objects:
  4317 ;;		On entry : 0/0
  4318 ;;		On exit  : 0/0
  4319 ;;		Unchanged: 0/0
  4320 ;; Data sizes:     COMMON   BANK0   BANK1   BANK2
  4321 ;;      Params:         0       0       0       0
  4322 ;;      Locals:         0       0       0       0
  4323 ;;      Temps:          0       0       0       0
  4324 ;;      Totals:         0       0       0       0
  4325 ;;Total ram usage:        0 bytes
  4326 ;; Hardware stack levels used: 1
  4327 ;; Hardware stack levels required when called: 2
  4328 ;; This function calls:
  4329 ;;		NULL
  4330 ;;		_I2C1_SlaveDefAddrInterruptHandler
  4331 ;; This function is called by:
  4332 ;;		_I2C1_Isr
  4333 ;; This function uses a non-reentrant model
  4334 ;;
  4335                           
  4336     027A                     _I2C1_SlaveAddrCallBack:	
  4337                           ;psect for function _I2C1_SlaveAddrCallBack
  4338                           
  4339     027A                     i1l1746:	
  4340                           ;incstack = 0
  4341                           ; Regs used in _I2C1_SlaveAddrCallBack: [wreg+status,2+status,0+pclath+cstack]
  4342                           
  4343                           
  4344                           ;mcc_generated_files/i2c1_slave.c: 269:     if (I2C1_SlaveAddrInterruptHandler) {
  4345     027A  0140               	movlb	0	; select bank0
  4346     027B  0833               	movf	_I2C1_SlaveAddrInterruptHandler,w
  4347     027C  0434               	iorwf	_I2C1_SlaveAddrInterruptHandler+1,w
  4348     027D  1903               	btfsc	3,2
  4349     027E  2A80               	goto	u35_21
  4350     027F  2A81               	goto	u35_20
  4351     0280                     u35_21:
  4352     0280  2A86               	goto	i1l285
  4353     0281                     u35_20:
  4354     0281                     i1l1748:
  4355                           
  4356                           ;mcc_generated_files/i2c1_slave.c: 270:         I2C1_SlaveAddrInterruptHandler();
  4357     0281  0834               	movf	_I2C1_SlaveAddrInterruptHandler+1,w
  4358     0282  008A               	movwf	10
  4359     0283  0833               	movf	_I2C1_SlaveAddrInterruptHandler,w
  4360     0284  000A               	callw
  4361     0285  3182               	pagesel	$
  4362     0286                     i1l285:
  4363     0286  0008               	return
  4364     0287                     __end_of_I2C1_SlaveAddrCallBack:
  4365                           
  4366                           	psect	text29
  4367     02BD                     __ptext29:	
  4368 ;; *************** function _I2C1_SlaveDefAddrInterruptHandler *****************
  4369 ;; Defined at:
  4370 ;;		line 274 in file "mcc_generated_files/i2c1_slave.c"
  4371 ;; Parameters:    Size  Location     Type
  4372 ;;		None
  4373 ;; Auto vars:     Size  Location     Type
  4374 ;;		None
  4375 ;; Return value:  Size  Location     Type
  4376 ;;                  1    wreg      void 
  4377 ;; Registers used:
  4378 ;;		wreg, pclath, cstack
  4379 ;; Tracked objects:
  4380 ;;		On entry : 0/0
  4381 ;;		On exit  : 0/0
  4382 ;;		Unchanged: 0/0
  4383 ;; Data sizes:     COMMON   BANK0   BANK1   BANK2
  4384 ;;      Params:         0       0       0       0
  4385 ;;      Locals:         0       0       0       0
  4386 ;;      Temps:          0       0       0       0
  4387 ;;      Totals:         0       0       0       0
  4388 ;;Total ram usage:        0 bytes
  4389 ;; Hardware stack levels used: 1
  4390 ;; Hardware stack levels required when called: 1
  4391 ;; This function calls:
  4392 ;;		_I2C1_SlaveGetRxData
  4393 ;; This function is called by:
  4394 ;;		_I2C1_Open
  4395 ;;		_I2C1_SlaveAddrCallBack
  4396 ;; This function uses a non-reentrant model
  4397 ;;
  4398                           
  4399     02BD                     _I2C1_SlaveDefAddrInterruptHandler:	
  4400                           ;psect for function _I2C1_SlaveDefAddrInterruptHandler
  4401                           
  4402     02BD                     i1l1592:	
  4403                           ;incstack = 0
  4404                           ; Regs used in _I2C1_SlaveDefAddrInterruptHandler: [wreg+pclath+cstack]
  4405                           
  4406                           
  4407                           ;mcc_generated_files/i2c1_slave.c: 275:     i2c1SlaveAddr = I2C1_SlaveGetRxData();
  4408     02BD  3182  22DF  3182   	fcall	_I2C1_SlaveGetRxData
  4409     02C0  0140               	movlb	0	; select bank0
  4410     02C1  00BB               	movwf	_i2c1SlaveAddr	;volatile
  4411     02C2                     i1l288:
  4412     02C2  0008               	return
  4413     02C3                     __end_of_I2C1_SlaveDefAddrInterruptHandler:
  4414                           
  4415                           	psect	text30
  4416     02DF                     __ptext30:	
  4417 ;; *************** function _I2C1_SlaveGetRxData *****************
  4418 ;; Defined at:
  4419 ;;		line 396 in file "mcc_generated_files/i2c1_slave.c"
  4420 ;; Parameters:    Size  Location     Type
  4421 ;;		None
  4422 ;; Auto vars:     Size  Location     Type
  4423 ;;		None
  4424 ;; Return value:  Size  Location     Type
  4425 ;;                  1    wreg      unsigned char 
  4426 ;; Registers used:
  4427 ;;		wreg
  4428 ;; Tracked objects:
  4429 ;;		On entry : 0/0
  4430 ;;		On exit  : 0/0
  4431 ;;		Unchanged: 0/0
  4432 ;; Data sizes:     COMMON   BANK0   BANK1   BANK2
  4433 ;;      Params:         0       0       0       0
  4434 ;;      Locals:         0       0       0       0
  4435 ;;      Temps:          0       0       0       0
  4436 ;;      Totals:         0       0       0       0
  4437 ;;Total ram usage:        0 bytes
  4438 ;; Hardware stack levels used: 1
  4439 ;; This function calls:
  4440 ;;		Nothing
  4441 ;; This function is called by:
  4442 ;;		_I2C1_SlaveDefRdInterruptHandler
  4443 ;;		_I2C1_SlaveDefAddrInterruptHandler
  4444 ;;		_I2C1_Read
  4445 ;; This function uses a non-reentrant model
  4446 ;;
  4447                           
  4448     02DF                     _I2C1_SlaveGetRxData:	
  4449                           ;psect for function _I2C1_SlaveGetRxData
  4450                           
  4451     02DF                     i1l1582:	
  4452                           ;incstack = 0
  4453                           ; Regs used in _I2C1_SlaveGetRxData: [wreg]
  4454                           
  4455                           
  4456                           ;mcc_generated_files/i2c1_slave.c: 398:     return SSP1BUF;
  4457     02DF  0143               	movlb	3	; select bank3
  4458     02E0  080C               	movf	12,w	;volatile
  4459     02E1                     i1l357:
  4460     02E1  0008               	return
  4461     02E2                     __end_of_I2C1_SlaveGetRxData:
  4462     007E                     btemp	set	126	;btemp
  4463     007E                     int$flags	set	126
  4464     007E                     wtemp0	set	126
  4465                           
  4466                           	psect	idloc
  4467                           
  4468                           ;Config register IDLOC0 @ 0x8000
  4469                           ;	unspecified, using default values
  4470     8000                     	org	32768
  4471     8000  3FFF               	dw	16383
  4472                           
  4473                           ;Config register IDLOC1 @ 0x8001
  4474                           ;	unspecified, using default values
  4475     8001                     	org	32769
  4476     8001  3FFF               	dw	16383
  4477                           
  4478                           ;Config register IDLOC2 @ 0x8002
  4479                           ;	unspecified, using default values
  4480     8002                     	org	32770
  4481     8002  3FFF               	dw	16383
  4482                           
  4483                           ;Config register IDLOC3 @ 0x8003
  4484                           ;	unspecified, using default values
  4485     8003                     	org	32771
  4486     8003  3FFF               	dw	16383
  4487                           
  4488                           	psect	config
  4489                           
  4490                           ;Config register CONFIG1 @ 0x8007
  4491                           ;	External Oscillator Mode Selection bits
  4492                           ;	FEXTOSC = OFF, Oscillator not enabled
  4493                           ;	Power-up Default Value for COSC bits
  4494                           ;	RSTOSC = HFINTOSC_32MHZ, HFINTOSC (32 MHz)
  4495                           ;	Clock Out Enable bit
  4496                           ;	CLKOUTEN = OFF, CLKOUT function is disabled; I/O function on RA4
  4497                           ;	VDD Range Analog Calibration Selection bit
  4498                           ;	VDDAR = HI, Internal analog systems are calibrated for operation between VDD = 2.3V - 
      +                          5.5V
  4499     8007                     	org	32775
  4500     8007  3FCD               	dw	16333
  4501                           
  4502                           ;Config register CONFIG2 @ 0x8008
  4503                           ;	Master Clear Enable bit
  4504                           ;	MCLRE = EXTMCLR, If LVP = 0, MCLR pin is MCLR; If LVP = 1, RA3 pin function is MCLR
  4505                           ;	Power-up Timer Selection bits
  4506                           ;	PWRTS = PWRT_OFF, PWRT is disabled
  4507                           ;	WDT Operating Mode bits
  4508                           ;	WDTE = OFF, WDT disabled; SEN is ignored
  4509                           ;	Brown-out Reset Enable bits
  4510                           ;	BOREN = ON, Brown-out Reset Enabled, SBOREN bit is ignored
  4511                           ;	Brown-out Reset Voltage Selection bit
  4512                           ;	BORV = LO, Brown-out Reset Voltage (VBOR) set to 1.9V
  4513                           ;	PPSLOCKED One-Way Set Enable bit
  4514                           ;	PPS1WAY = ON, The PPSLOCKED bit can be set once after an unlocking sequence is execute
      +                          d; once PPSLOCKED is set, all future changes to PPS registers are prevented
  4515                           ;	Stack Overflow/Underflow Reset Enable bit
  4516                           ;	STVREN = ON, Stack Overflow or Underflow will cause a reset
  4517     8008                     	org	32776
  4518     8008  3FE7               	dw	16359
  4519                           
  4520                           ;Config register CONFIG3 @ 0x8009
  4521                           ;	unspecified, using default values
  4522     8009                     	org	32777
  4523     8009  3FFF               	dw	16383
  4524                           
  4525                           ;Config register CONFIG4 @ 0x800A
  4526                           ;	Boot Block Size Selection bits
  4527                           ;	BBSIZE = BB512, 512 words boot block size
  4528                           ;	Boot Block Enable bit
  4529                           ;	BBEN = OFF, Boot Block is disabled
  4530                           ;	SAF Enable bit
  4531                           ;	SAFEN = ON, SAF is enabled
  4532                           ;	Application Block Write Protection bit
  4533                           ;	WRTAPP = OFF, Application Block is not write-protected
  4534                           ;	Boot Block Write Protection bit
  4535                           ;	WRTB = OFF, Boot Block is not write-protected
  4536                           ;	Configuration Registers Write Protection bit
  4537                           ;	WRTC = OFF, Configuration Registers are not write-protected
  4538                           ;	Storage Area Flash (SAF) Write Protection bit
  4539                           ;	WRTSAF = OFF, SAF is not write-protected
  4540                           ;	Low Voltage Programming Enable bit
  4541                           ;	LVP = ON, Low Voltage programming enabled. MCLR/Vpp pin function is MCLR. MCLRE Config
      +                          uration bit is ignored.
  4542     800A                     	org	32778
  4543     800A  3FEF               	dw	16367
  4544                           
  4545                           ;Config register CONFIG5 @ 0x800B
  4546                           ;	User Program Flash Memory Code Protection bit
  4547                           ;	CP = OFF, User Program Flash Memory code protection is disabled
  4548     800B                     	org	32779
  4549     800B  3FFF               	dw	16383

Data Sizes:
    Strings     0
    Constant    0
    Data        64
    BSS         17
    Persistent  34
    Stack       0

Auto Spaces:
    Space          Size  Autos    Used
    COMMON           14      8      11
    BANK0            80     15      31
    BANK1            80      0      64
    BANK2            80      0       0

Pointer List with Targets:

    FLASH_WriteBlock@flashWordArray	PTR unsigned short  size(1) Largest target is 64
		 -> dataBlock(BANK1[64]), 

    TMR0_SetInterruptHandler@InterruptHandler	PTR FTN()void  size(2) Largest target is 1
		 -> TMR0_DefaultInterruptHandler(), 

    TMR0_InterruptHandler	PTR FTN()void  size(2) Largest target is 1
		 -> TMR0_DefaultInterruptHandler(), NULL(), 

    I2C1_SlaveBusColInterruptHandler	PTR FTN()void  size(2) Largest target is 1
		 -> NULL(), I2C1_SlaveDefBusColInterruptHandler(), 

    I2C1_SlaveWrColInterruptHandler	PTR FTN()void  size(2) Largest target is 1
		 -> NULL(), I2C1_SlaveDefWrColInterruptHandler(), 

    I2C1_SlaveAddrInterruptHandler	PTR FTN()void  size(2) Largest target is 1
		 -> NULL(), I2C1_SlaveDefAddrInterruptHandler(), 

    I2C1_SlaveWrInterruptHandler	PTR FTN()void  size(2) Largest target is 1
		 -> NULL(), I2C1_SlaveDefWrInterruptHandler(), 

    I2C1_SlaveRdInterruptHandler	PTR FTN()void  size(2) Largest target is 1
		 -> NULL(), I2C1_SlaveDefRdInterruptHandler(), 

    MSSP1_InterruptHandler	PTR FTN()void  size(2) Largest target is 1
		 -> NULL(), I2C1_Isr(), 


Critical Paths under _main in COMMON

    _main->_memory_initialize
    _memory_initialize->_FLASH_ReadWord
    _FLASH_WriteBlock->_FLASH_EraseBlock
    _TMR0_Initialize->_TMR0_SetInterruptHandler

Critical Paths under _INTERRUPT_InterruptManager in COMMON

    _INTERRUPT_InterruptManager->_I2C1_Isr
    _TMR0_ISR->_TMR0_DefaultInterruptHandler
    _I2C1_SlaveDefWrInterruptHandler->_I2C1_SlaveSendTxData

Critical Paths under _main in BANK0

    _memory_initialize->_FLASH_WriteBlock

Critical Paths under _INTERRUPT_InterruptManager in BANK0

    None.

Critical Paths under _main in BANK1

    None.

Critical Paths under _INTERRUPT_InterruptManager in BANK1

    None.

Critical Paths under _main in BANK2

    None.

Critical Paths under _INTERRUPT_InterruptManager in BANK2

    None.

Call Graph Tables:

 ---------------------------------------------------------------------------------
 (Depth) Function   	        Calls       Base Space   Used Autos Params    Refs
 ---------------------------------------------------------------------------------
 (0) _main                                                 5     5      0    1617
                                             10 BANK0      5     5      0
                  _SYSTEM_Initialize
         _SensorBoardType_validation
                  _memory_initialize
 ---------------------------------------------------------------------------------
 (1) _memory_initialize                                    3     3      0    1259
                                              6 COMMON     2     2      0
                     _FLASH_ReadWord
                   _FLASH_WriteBlock
 ---------------------------------------------------------------------------------
 (2) _FLASH_WriteBlock                                    10     7      3     952
                                              0 BANK0     10     7      3
                   _FLASH_EraseBlock
 ---------------------------------------------------------------------------------
 (3) _FLASH_EraseBlock                                     3     1      2     143
                                              3 COMMON     3     1      2
 ---------------------------------------------------------------------------------
 (2) _FLASH_ReadWord                                       3     1      2     295
                                              3 COMMON     3     1      2
 ---------------------------------------------------------------------------------
 (1) _SensorBoardType_validation                           1     1      0      44
                                              3 COMMON     1     1      0
 ---------------------------------------------------------------------------------
 (1) _SYSTEM_Initialize                                    0     0      0      98
                    _I2C1_Initialize
              _OSCILLATOR_Initialize
             _PIN_MANAGER_Initialize
                    _TMR0_Initialize
                     _WDT_Initialize
 ---------------------------------------------------------------------------------
 (2) _WDT_Initialize                                       0     0      0       0
 ---------------------------------------------------------------------------------
 (2) _TMR0_Initialize                                      0     0      0      98
           _TMR0_SetInterruptHandler
 ---------------------------------------------------------------------------------
 (3) _TMR0_SetInterruptHandler                             2     0      2      98
                                              3 COMMON     2     0      2
 ---------------------------------------------------------------------------------
 (2) _PIN_MANAGER_Initialize                               0     0      0       0
 ---------------------------------------------------------------------------------
 (2) _OSCILLATOR_Initialize                                0     0      0       0
 ---------------------------------------------------------------------------------
 (2) _I2C1_Initialize                                      1     1      0       0
                                              3 COMMON     1     1      0
 ---------------------------------------------------------------------------------
 Estimated maximum stack depth 3
 ---------------------------------------------------------------------------------
 (Depth) Function   	        Calls       Base Space   Used Autos Params    Refs
 ---------------------------------------------------------------------------------
 (4) _INTERRUPT_InterruptManager                           0     0      0      22
                                NULL *
                           _I2C1_Isr *
                           _TMR0_ISR
 ---------------------------------------------------------------------------------
 (5) _TMR0_ISR                                             0     0      0       0
                                NULL *
       _TMR0_DefaultInterruptHandler *
 ---------------------------------------------------------------------------------
 (6) _TMR0_DefaultInterruptHandler                         1     1      0       0
                                              0 COMMON     1     1      0
 ---------------------------------------------------------------------------------
 (5) _I2C1_Isr                                             2     2      0      22
                                              1 COMMON     2     2      0
             _I2C1_SlaveAddrCallBack
                 _I2C1_SlaveClearIrq
                   _I2C1_SlaveIsAddr
                   _I2C1_SlaveIsRead
              _I2C1_SlaveIsRxBufFull
             _I2C1_SlaveIsTxBufEmpty
               _I2C1_SlaveRdCallBack
             _I2C1_SlaveReleaseClock
               _I2C1_SlaveWrCallBack
 ---------------------------------------------------------------------------------
 (6) _I2C1_SlaveWrCallBack                                 0     0      0      22
                                NULL *
    _I2C1_SlaveDefWrInterruptHandler *
 ---------------------------------------------------------------------------------
 (7) _I2C1_SlaveDefWrInterruptHandler                      0     0      0      22
               _I2C1_SlaveSendTxData
 ---------------------------------------------------------------------------------
 (8) _I2C1_SlaveSendTxData                                 1     1      0      22
                                              0 COMMON     1     1      0
 ---------------------------------------------------------------------------------
 (6) _I2C1_SlaveReleaseClock                               0     0      0       0
 ---------------------------------------------------------------------------------
 (6) _I2C1_SlaveRdCallBack                                 0     0      0       0
                                NULL *
    _I2C1_SlaveDefRdInterruptHandler *
 ---------------------------------------------------------------------------------
 (7) _I2C1_SlaveDefRdInterruptHandler                      0     0      0       0
                _I2C1_SlaveGetRxData
 ---------------------------------------------------------------------------------
 (6) _I2C1_SlaveIsTxBufEmpty                               0     0      0       0
 ---------------------------------------------------------------------------------
 (6) _I2C1_SlaveIsRxBufFull                                0     0      0       0
 ---------------------------------------------------------------------------------
 (6) _I2C1_SlaveIsRead                                     0     0      0       0
 ---------------------------------------------------------------------------------
 (6) _I2C1_SlaveIsAddr                                     0     0      0       0
 ---------------------------------------------------------------------------------
 (6) _I2C1_SlaveClearIrq                                   0     0      0       0
 ---------------------------------------------------------------------------------
 (6) _I2C1_SlaveAddrCallBack                               0     0      0       0
                                NULL *
  _I2C1_SlaveDefAddrInterruptHandler *
 ---------------------------------------------------------------------------------
 (7) _I2C1_SlaveDefAddrInterruptHandler                    0     0      0       0
                _I2C1_SlaveGetRxData
 ---------------------------------------------------------------------------------
 (8) _I2C1_SlaveGetRxData                                  0     0      0       0
 ---------------------------------------------------------------------------------
 (6) NULL(Fake)                                            0     0      0       0
 ---------------------------------------------------------------------------------
 Estimated maximum stack depth 8
 ---------------------------------------------------------------------------------

 Call Graph Graphs:

 _main (ROOT)
   _SYSTEM_Initialize
     _I2C1_Initialize
     _OSCILLATOR_Initialize
     _PIN_MANAGER_Initialize
     _TMR0_Initialize
       _TMR0_SetInterruptHandler
     _WDT_Initialize
   _SensorBoardType_validation
   _memory_initialize
     _FLASH_ReadWord
     _FLASH_WriteBlock
       _FLASH_EraseBlock

 _INTERRUPT_InterruptManager (ROOT)
   NULL(Fake) *
   _I2C1_Isr *
     _I2C1_SlaveAddrCallBack
       NULL(Fake) *
       _I2C1_SlaveDefAddrInterruptHandler *
         _I2C1_SlaveGetRxData
     _I2C1_SlaveClearIrq
     _I2C1_SlaveIsAddr
     _I2C1_SlaveIsRead
     _I2C1_SlaveIsRxBufFull
     _I2C1_SlaveIsTxBufEmpty
     _I2C1_SlaveRdCallBack
       NULL(Fake) *
       _I2C1_SlaveDefRdInterruptHandler *
         _I2C1_SlaveGetRxData
     _I2C1_SlaveReleaseClock
     _I2C1_SlaveWrCallBack
       NULL(Fake) *
       _I2C1_SlaveDefWrInterruptHandler *
         _I2C1_SlaveSendTxData
   _TMR0_ISR *
     NULL(Fake) *
     _TMR0_DefaultInterruptHandler *

 Address spaces:
Name               Size   Autos  Total    Cost      Usage
BIGRAM              F0      0       0       0        0.0%
NULL                 0      0       0       0        0.0%
CODE                 0      0       0       0        0.0%
BITCOMMON            E      0       0       1        0.0%
BITSFR0              0      0       0       1        0.0%
SFR0                 0      0       0       1        0.0%
COMMON               E      8       B       2       78.6%
BITSFR1              0      0       0       2        0.0%
SFR1                 0      0       0       2        0.0%
BITSFR2              0      0       0       3        0.0%
SFR2                 0      0       0       3        0.0%
STACK                0      0       0       3        0.0%
BITBANK0            50      0       0       4        0.0%
BITSFR3              0      0       0       4        0.0%
SFR3                 0      0       0       4        0.0%
BANK0               50      F      1F       5       38.8%
BITSFR4              0      0       0       5        0.0%
SFR4                 0      0       0       5        0.0%
BITBANK1            50      0       0       6        0.0%
BITSFR5              0      0       0       6        0.0%
SFR5                 0      0       0       6        0.0%
BANK1               50      0      40       7       80.0%
BITSFR6              0      0       0       7        0.0%
SFR6                 0      0       0       7        0.0%
BITBANK2            50      0       0       8        0.0%
BITSFR7              0      0       0       8        0.0%
SFR7                 0      0       0       8        0.0%
BANK2               50      0       0       9        0.0%
BITSFR8              0      0       0       9        0.0%
SFR8                 0      0       0       9        0.0%
BITSFR9              0      0       0      10        0.0%
SFR9                 0      0       0      10        0.0%
ABS                  0      0      6A      10        0.0%
BITSFR10             0      0       0      11        0.0%
SFR10                0      0       0      11        0.0%
DATA                 0      0      6A      11        0.0%
BITSFR11             0      0       0      12        0.0%
SFR11                0      0       0      12        0.0%
BITSFR12             0      0       0      13        0.0%
SFR12                0      0       0      13        0.0%
BITSFR13             0      0       0      14        0.0%
SFR13                0      0       0      14        0.0%
BITSFR14             0      0       0      15        0.0%
SFR14                0      0       0      15        0.0%
BITSFR15             0      0       0      16        0.0%
SFR15                0      0       0      16        0.0%
BITSFR16             0      0       0      17        0.0%
SFR16                0      0       0      17        0.0%
BITSFR17             0      0       0      18        0.0%
SFR17                0      0       0      18        0.0%
BITSFR18             0      0       0      19        0.0%
SFR18                0      0       0      19        0.0%
BITSFR19             0      0       0      20        0.0%
SFR19                0      0       0      20        0.0%
BITSFR20             0      0       0      21        0.0%
SFR20                0      0       0      21        0.0%
BITSFR21             0      0       0      22        0.0%
SFR21                0      0       0      22        0.0%
BITSFR22             0      0       0      23        0.0%
SFR22                0      0       0      23        0.0%
BITSFR23             0      0       0      24        0.0%
SFR23                0      0       0      24        0.0%
BITSFR24             0      0       0      25        0.0%
SFR24                0      0       0      25        0.0%
BITSFR25             0      0       0      26        0.0%
SFR25                0      0       0      26        0.0%
BITSFR26             0      0       0      27        0.0%
SFR26                0      0       0      27        0.0%
BITSFR27             0      0       0      28        0.0%
SFR27                0      0       0      28        0.0%
BITSFR28             0      0       0      29        0.0%
SFR28                0      0       0      29        0.0%
BITSFR29             0      0       0      30        0.0%
SFR29                0      0       0      30        0.0%
BITSFR30             0      0       0      31        0.0%
SFR30                0      0       0      31        0.0%
BITSFR31             0      0       0      32        0.0%
SFR31                0      0       0      32        0.0%
BITSFR32             0      0       0      33        0.0%
SFR32                0      0       0      33        0.0%
BITSFR33             0      0       0      34        0.0%
SFR33                0      0       0      34        0.0%
BITSFR34             0      0       0      35        0.0%
SFR34                0      0       0      35        0.0%
BITSFR35             0      0       0      36        0.0%
SFR35                0      0       0      36        0.0%
BITSFR36             0      0       0      37        0.0%
SFR36                0      0       0      37        0.0%
BITSFR37             0      0       0      38        0.0%
SFR37                0      0       0      38        0.0%
BITSFR38             0      0       0      39        0.0%
SFR38                0      0       0      39        0.0%
BITSFR39             0      0       0      40        0.0%
SFR39                0      0       0      40        0.0%
BITSFR40             0      0       0      41        0.0%
SFR40                0      0       0      41        0.0%
BITSFR41             0      0       0      42        0.0%
SFR41                0      0       0      42        0.0%
BITSFR42             0      0       0      43        0.0%
SFR42                0      0       0      43        0.0%
BITSFR43             0      0       0      44        0.0%
SFR43                0      0       0      44        0.0%
BITSFR44             0      0       0      45        0.0%
SFR44                0      0       0      45        0.0%
BITSFR45             0      0       0      46        0.0%
SFR45                0      0       0      46        0.0%
BITSFR46             0      0       0      47        0.0%
SFR46                0      0       0      47        0.0%
BITSFR47             0      0       0      48        0.0%
SFR47                0      0       0      48        0.0%
BITSFR48             0      0       0      49        0.0%
SFR48                0      0       0      49        0.0%
BITSFR49             0      0       0      50        0.0%
SFR49                0      0       0      50        0.0%
BITSFR50             0      0       0      51        0.0%
SFR50                0      0       0      51        0.0%
BITSFR51             0      0       0      52        0.0%
SFR51                0      0       0      52        0.0%
BITSFR52             0      0       0      53        0.0%
SFR52                0      0       0      53        0.0%
BITSFR53             0      0       0      54        0.0%
SFR53                0      0       0      54        0.0%
BITSFR54             0      0       0      55        0.0%
SFR54                0      0       0      55        0.0%
BITSFR55             0      0       0      56        0.0%
SFR55                0      0       0      56        0.0%
BITSFR56             0      0       0      57        0.0%
SFR56                0      0       0      57        0.0%
BITSFR57             0      0       0      58        0.0%
SFR57                0      0       0      58        0.0%
BITSFR58             0      0       0      59        0.0%
SFR58                0      0       0      59        0.0%
BITSFR59             0      0       0      60        0.0%
SFR59                0      0       0      60        0.0%
BITSFR60             0      0       0      61        0.0%
SFR60                0      0       0      61        0.0%
BITSFR61             0      0       0      62        0.0%
SFR61                0      0       0      62        0.0%
BITSFR62             0      0       0      63        0.0%
SFR62                0      0       0      63        0.0%
BITSFR63             0      0       0      64        0.0%
SFR63                0      0       0      64        0.0%


Microchip Technology PIC Macro Assembler V2.41 build 20230208172133 
Symbol Table                                                                                   Thu Apr 13 09:50:27 2023

                 ??_I2C1_SlaveAddrCallBack 0070                                         l26 018C  
                                       l65 01AF                                        l212 0290  
                                      l420 02B0                                        l511 0250  
                                      l514 02B6                                        l452 0206  
                                      l460 0063                                        l517 02D8  
                                      l461 00B9                                        l463 00B0  
                                      l467 01ED                                        l398 0230  
                                      l558 0240                                        u610 0061  
                 __end_of_I2C1_SlaveIsAddr 029F                                        u611 0060  
                                      u620 0097                                        u621 0096  
                                      u630 00B0                                        u631 00AF  
                                      u615 005D                                        u480 0237  
                                      u640 0173                                        u481 0236  
                                      u641 0172                                        u490 023D  
                                      u491 023C                                        u665 01C2  
                 __end_of_I2C1_SlaveIsRead 02D2                                        wreg 0009  
           FLASH_WriteBlock@flashWordArray 0022                                       l2010 0082  
                                     l2020 009F                                       l2012 0090  
                                     l2004 0071                                       l2030 00B8  
                                     l2022 00A0                                       l2014 0097  
                                     l2006 0074                                       l2024 00A6  
                                     l2016 0099                                       l2008 0078  
                                     l2040 017D                                       l2026 00AA  
                                     l2018 009E                                       l2042 0188  
                                     l2034 0163                                       l2028 00B2  
                                     l2036 0163                                       l2038 0173  
                                     l2070 01B8                                       l2062 01B0  
                                     l1600 01D7                                       l2080 01CA  
                                     l2072 01B8                                       l2064 01B3  
                                     l1610 01E3                                       l1602 01DA  
                                     l2074 01BC                                       l2066 01B6  
                                     l1700 0192                                       l1620 01EE  
                                     l1612 01E4                                       l1604 01DC  
                                     l2076 01BF                                       l2068 01B7  
                                     l1710 019B                                       l1702 0196  
                                     l1630 01F9                                       l1622 01F2  
                                     l1614 01E5                                       l1606 01DD  
                                     l2078 01C7                                       l1720 01A4  
                                     l1712 019C                                       l1704 0198  
                                     l1632 01FA                                       l1624 01F3  
                                     l1616 01E6                                       l1608 01DE  
                         __end_of_I2C1_Isr 0123                                       l1730 028A  
                                     l1722 01A6                                       l1714 019E  
                                     l1706 0199                                       l1634 01FB  
                                     l1626 01F6                                       l1618 01E8  
                                     l1732 028E                                       l1724 01A9  
                                     l1716 01A0                                       l1708 019A  
                                     l1636 01FC                                       l1628 01F8  
                                     l1734 028F                                       l1726 01AC  
                                     l1718 01A2                                       l1638 0201  
                                     l1728 0287                                       l1594 02AB  
                                     l1770 0222                                       l1772 0223  
                                     l1852 0241                                       l1860 0237  
                                     l1596 01D2                                       l1790 02B5  
                                     l1774 0225                                       l1854 024A  
                                     l1862 023D                                       l1598 01D6  
                                     l1696 018D                                       l1776 0226  
                                     l1768 021D                                       l1792 02D6  
                                     l1856 024D                                       l1786 02B1  
                                     l1698 0190                                       l1778 022D  
                                     l1866 023F                                       l1858 0232  
                                     l1788 02B3                                       l1980 004C  
                                     l1990 0064                                       l1982 0053  
                                     l1992 006B                                       l1984 0057  
                                     l1994 006D                                       l1986 0061  
                                     l1996 006E                                       l1998 006F  
                                     _LATA 0018                                       _LATC 001A  
                                     i1l99 0013                                       _WPUA 1F39  
                                     _WPUC 1F4F                                       _main 01B0  
                                     fsr0h 0005                                       fsr1h 0007  
                                     indf0 0000                                       fsr0l 0004  
                                     indf1 0001                                       fsr1l 0006  
                                     btemp 007E                          ?_FLASH_WriteBlock 0020  
                                     start 0031                                 _i2c1RdData 003C  
                       ??_FLASH_WriteBlock 0023                                 _i2c1WrData 0079  
             _I2C1_SlaveRdInterruptHandler 0037               _I2C1_SlaveWrInterruptHandler 0035  
                  __end_of_TMR0_Initialize 0231             ??_TMR0_DefaultInterruptHandler 0070  
            __end_of_OSCILLATOR_Initialize 02B7                                      ?_main 0070  
                                    i1l102 0026                                      i1l106 002F  
                                    i1l107 002F                                      i1l330 02D1  
                                    i1l333 02DE                                      i1l327 029E  
                                    i1l351 02D5                                      i1l255 0122  
                                    i1l336 02DB                                      i1l424 0211  
                                    i1l265 0279                                      i1l417 025F  
                                    i1l354 02CC                                      i1l275 026C  
                                    i1l427 0219                                      i1l348 0297  
                                    i1l268 02BC                                      i1l357 02E1  
                                    i1l285 0286                                      i1l429 021C  
                                    i1l278 02C7                                      i1l288 02C2  
       __end_of_SensorBoardType_validation 0241                 _SensorBoardType_validation 0231  
                                    _OSCEN 0891                                      u41_20 025A  
                                    _TMR0H 059D                                      u41_21 0259  
                                    _TMR0L 059C                                      u42_20 00C5  
                                    u50_20 000B                                      u42_21 00C4  
                                    u50_21 000A                                      u35_20 0281  
                                    u43_20 00CD                                      u51_20 000F  
                                    u35_21 0280                                      u43_21 00CC  
                                    u51_21 000E                                      _PORTA 000C  
                                    _PORTC 000E                                      u36_20 0267  
                                    u44_20 00DB                                      u52_20 0017  
                                    u36_21 0266                                      u44_21 00DA  
                                    u52_21 0016                                      u37_20 0274  
                                    u45_20 00EC                                      u53_20 001B  
                                    u37_21 0273                                      u45_21 00EB  
                                    u53_21 001A                                      u46_20 00FC  
                                    u38_20 0211                                      u54_20 001F  
                                    u46_21 00FB                                      u38_21 0210  
                                    u54_21 001E                                      u47_20 0105  
                                    u39_20 0219                                      u55_20 002A  
                                    u47_21 0104                                      u39_21 0218  
                                    u55_21 0029                                      u56_20 002E  
                                    u56_21 002D                                      _TRISA 0012  
                                    _TRISC 0014                  ?_TMR0_SetInterruptHandler 0073  
                        ??_I2C1_Initialize 0073                           __end_of_TMR0_ISR 0260  
                           _WDT_Initialize 02D6                             _i2c1SlaveState 0078  
                                    main@v 002C                                      pclath 000A  
                                    status 0003                                      wtemp0 007E  
                          __initialization 0032                               __end_of_main 01D2  
              ?_INTERRUPT_InterruptManager 0070                                     ??_main 002A  
                       _I2C1_SlaveClearIrq 02DC                     __end_of_WDT_Initialize 02D9  
                      ?_I2C1_SlaveClearIrq 0070                  FLASH_WriteBlock@writeAddr 0020  
                  ?_I2C1_SlaveReleaseClock 0070                                     _ANSELA 1F38  
                                   _ANSELC 1F4E                                     _T0CON0 059E  
                                   _T0CON1 059F                                     _RC0PPS 1F20  
                                   _RC1PPS 1F21                                     i1l2102 0111  
                                   _ODCONA 1F3A                                     _ODCONC 1F50  
                                   i1l1810 00BA                                     i1l1740 02DC  
                                   i1l1820 00D3                                     i1l1812 00BD  
                                   i1l1804 0251                                     i1l1582 02DF  
                                   i1l1742 0298                                     i1l1750 0291  
                                   i1l1590 02C3                                     i1l1830 00EC  
                                   i1l1822 00DB                                     i1l1814 00C5  
                                   i1l1806 0253                                     i1l1592 02BD  
                                   i1l1736 02CD                                     i1l1840 0105  
                                   i1l1832 00F0                                     i1l1824 00DE  
                                   i1l1816 00CD                                     i1l1808 025A  
                                   i1l1746 027A                                     i1l1762 026D  
                                   i1l1586 02C9                                     i1l1754 0260  
                                   i1l1834 00F4                                     i1l1826 00E1  
                                   i1l1818 00D0                                     i1l1748 0281  
                                   i1l1588 02B7                                     i1l1764 0274  
                                   i1l1756 0267                                     i1l1828 00E4  
                                   i1l1844 0109                                     i1l1780 0207  
                                   i1l1758 02D2                                     i1l1766 02D9  
                                   i1l1838 00FD                                     i1l1846 011F  
                                   i1l1782 0213                                     i1l1870 0006  
                                   i1l1784 021B                                     i1l1880 001F  
                                   i1l1872 000B                                     i1l1882 002A  
                                   i1l1874 000F                                     i1l1876 0017  
                                   i1l1878 001B                                     _INLVLA 1F3C  
                                   _INLVLC 1F52                                     _OSCFRQ 0893  
                                   _WDTCON 080C                       ??_I2C1_SlaveClearIrq 0070  
                         ?_TMR0_Initialize 0070                                  ?_I2C1_Isr 0070  
                  FLASH_ReadWord@flashAddr 0073                            ?_WDT_Initialize 0070  
           __end_of_I2C1_SlaveReleaseClock 02DC   TMR0_SetInterruptHandler@InterruptHandler 0073  
                   _I2C1_SlaveAddrCallBack 027A                          _SYSTEM_Initialize 0241  
                  __end_of__initialization 0049                         ?_SYSTEM_Initialize 0070  
                           __pcstackCOMMON 0070                     memory_initialize@teste 0076  
                             __pidataBANK1 0123                        ??_SYSTEM_Initialize 0075  
                                ?_TMR0_ISR 0070                                 ??_I2C1_Isr 0071  
                        ?_I2C1_SlaveIsAddr 0070                          ?_I2C1_SlaveIsRead 0070  
              FLASH_WriteBlock@GIEBitValue 0028                         ??_I2C1_SlaveIsAddr 0070  
                       ??_I2C1_SlaveIsRead 0070                  __end_of_SYSTEM_Initialize 0251  
                               __pbssBANK0 002F                        _I2C1_SlaveGetRxData 02DF  
                    _I2C1_SlaveIsRxBufFull 02D2                                 __pmaintext 01B0  
         __end_of_TMR0_SetInterruptHandler 02B1                                 ??_TMR0_ISR 0071  
                               __pintentry 0004                            _I2C1_Initialize 0287  
                     ?_I2C1_SlaveGetRxData 0070                             _FLASH_ReadWord 01EE  
              ?_SensorBoardType_validation 0070                                    _NVMADRH 081B  
                                  _NVMADRL 081A                                    _NVMDATH 081D  
                                  _OSCTUNE 0892                                    _NVMDATL 081C  
                                  _NVMCON2 081F                                    _SSP1ADD 018D  
                                  _SLRCONA 1F3B                                    _SLRCONC 1F51  
                                  _SSP1BUF 018C                                    _SSP1MSK 018E  
                         _FLASH_EraseBlock 01D2  SensorBoardType_validation@SensorBoardType 0073  
                    ??_I2C1_SlaveGetRxData 0070                     __end_of_FLASH_ReadWord 0207  
                                  __ptext1 0163                                    __ptext2 004C  
                                  __ptext3 01D2                                    __ptext4 01EE  
                                  __ptext5 0231                                    __ptext6 0241  
                                  __ptext7 02D6                                    __ptext8 021D  
                                  __ptext9 02AB                          _memory_initialize 0163  
           _I2C1_SlaveAddrInterruptHandler 0033                      _OSCILLATOR_Initialize 02B1  
                       ?_memory_initialize 0070                   ??_PIN_MANAGER_Initialize 0073  
                 ??_I2C1_SlaveIsTxBufEmpty 0070                                    main@TAG 002B  
                                  clrloop0 02A6                       end_of_initialization 0049  
                      ??_memory_initialize 0076                                    init_ram 029F  
                                _LED_timer 007A                     ?_I2C1_SlaveIsRxBufFull 0070  
                                  initloop 02A0            _I2C1_SlaveWrColInterruptHandler 002F  
                  __end_of_I2C1_Initialize 0291               __end_of_I2C1_SlaveRdCallBack 027A  
                FLASH_ReadWord@GIEBitValue 0075                  __end_of_memory_initialize 018D  
                          ?_FLASH_ReadWord 0073                           ??_WDT_Initialize 0073  
                 _TMR0_SetInterruptHandler 02AB                    ?_I2C1_SlaveAddrCallBack 0070  
                        FLASH_WriteBlock@i 0029                              _i2c1SlaveAddr 003B  
                         _FLASH_WriteBlock 004C                     ?_OSCILLATOR_Initialize 0070  
           __end_of_I2C1_SlaveAddrCallBack 0287               __end_of_I2C1_SlaveSendTxData 02CD  
                      start_initialization 0032               __end_of_I2C1_SlaveWrCallBack 026D  
                 I2C1_SlaveSendTxData@data 0070                           ?_I2C1_Initialize 0070  
                              __pdataBANK1 00A0                FLASH_EraseBlock@GIEBitValue 0075  
                 __end_of_FLASH_EraseBlock 01EE    __end_of_I2C1_SlaveDefRdInterruptHandler 02BD  
        ??_I2C1_SlaveDefRdInterruptHandler 0070           ?_I2C1_SlaveDefRdInterruptHandler 0070  
          _I2C1_SlaveDefRdInterruptHandler 02B7    __end_of_I2C1_SlaveDefWrInterruptHandler 02C8  
        ??_I2C1_SlaveDefWrInterruptHandler 0071           ?_I2C1_SlaveDefWrInterruptHandler 0070  
          _I2C1_SlaveDefWrInterruptHandler 02C3                                __pbssCOMMON 0078  
                                ___latbits 0000                              __pcstackBANK0 0020  
                     _I2C1_SlaveRdCallBack 026D                                  _dataBlock 00A0  
                    _TMR0_InterruptHandler 003D                                  __pnvBANK0 003D  
                   _PIN_MANAGER_Initialize 018D                     _MSSP1_InterruptHandler 0039  
                   _I2C1_SlaveIsTxBufEmpty 0291                                   _I2C1_Isr 00BA  
             ??_INTERRUPT_InterruptManager 0073                   ??_I2C1_SlaveReleaseClock 0070  
                    ?_I2C1_SlaveRdCallBack 0070                    ??_I2C1_SlaveIsRxBufFull 0070  
           FLASH_WriteBlock@blockStartAddr 0026                          ??_TMR0_Initialize 0075  
                                 _LATAbits 0018                                  clear_ram0 02A5  
                                 _PIE0bits 0716                                   _PIE1bits 0717  
               ??_TMR0_SetInterruptHandler 0075                                   _PIR0bits 070C  
              __end_of_I2C1_SlaveGetRxData 02E2                                   _PIR1bits 070D  
                FLASH_EraseBlock@startAddr 0073                       _I2C1_SlaveSendTxData 02C8  
                         ??_FLASH_ReadWord 0075                       _I2C1_SlaveWrCallBack 0260  
                                 _SSP1CON1 0190                                   _SSP1CON2 0191  
                                 _TMR0_ISR 0251                                   _SSP1STAT 018F  
         _I2C1_SlaveBusColInterruptHandler 0031         _I2C1_SlaveDefWrColInterruptHandler 0000  
                 __end_of_FLASH_WriteBlock 00BA  __end_of_I2C1_SlaveDefAddrInterruptHandler 02C3  
      ??_I2C1_SlaveDefAddrInterruptHandler 0070         ?_I2C1_SlaveDefAddrInterruptHandler 0070  
        _I2C1_SlaveDefAddrInterruptHandler 02BD                           _I2C1_SlaveIsAddr 0298  
                         _I2C1_SlaveIsRead 02CD                      ?_I2C1_SlaveSendTxData 0070  
                    ?_I2C1_SlaveWrCallBack 0070                    ??_OSCILLATOR_Initialize 0073  
      _I2C1_SlaveDefBusColInterruptHandler 0000                     ??_I2C1_SlaveRdCallBack 0070  
                               _T0CON0bits 059E                                   __ptext10 018D  
                                 __ptext11 02B1                                   __ptext20 02D9  
                                 __ptext12 0287                                   __ptext21 026D  
                                 __ptext30 02DF                                   __ptext22 02B7  
                                 __ptext14 0251                                   __ptext23 0291  
                                 __ptext15 0207                                   __ptext24 02D2  
                                 __ptext16 00BA                                   __ptext25 02CD  
                                 __ptext17 0260                                   __ptext26 0298  
                                 __ptext18 02C3                                   __ptext27 02DC  
                                 __ptext19 02C8                                   __ptext28 027A  
                                 __ptext29 02BD                               _SSP1CON1bits 0190  
                             _SSP1CON2bits 0191       __end_of_TMR0_DefaultInterruptHandler 021D  
             _TMR0_DefaultInterruptHandler 0207                 __end_of_I2C1_SlaveClearIrq 02DF  
                                 int$flags 007E         __end_of_INTERRUPT_InterruptManager 0031  
               _INTERRUPT_InterruptManager 0004                               _SSP1STATbits 018F  
                        ?_FLASH_EraseBlock 0073                         ??_FLASH_EraseBlock 0075  
                               _INTCONbits 000B               ??_SensorBoardType_validation 0073  
                              _NVMCON1bits 081E                                   intlevel1 0000  
                   _I2C1_SlaveReleaseClock 02D9                    ?_PIN_MANAGER_Initialize 0070  
                  ?_I2C1_SlaveIsTxBufEmpty 0070                     ??_I2C1_SlaveSendTxData 0070  
                   ??_I2C1_SlaveWrCallBack 0071              ?_TMR0_DefaultInterruptHandler 0070  
                               _SSP1DATPPS 1EC6                                 _SSP1CLKPPS 1EC5  
                          _TMR0_Initialize 021D             __end_of_PIN_MANAGER_Initialize 01B0  
           __end_of_I2C1_SlaveIsTxBufEmpty 0298              __end_of_I2C1_SlaveIsRxBufFull 02D6  
