

Microchip MPLAB XC8 Assembler V2.41 build 20230208172133 
                                                                                               Sun Apr  2 10:57:55 2023

Microchip MPLAB XC8 C Compiler v2.41 (Free license) build 20230208172133 Og1 
     1                           	processor	16F15223
     2                           	pagewidth 120
     3                           	opt	flic
     4                           	psect	nvBANK0,global,class=BANK0,space=1,delta=1,noexec
     5                           	psect	cinit,global,class=CODE,merge=1,delta=2
     6                           	psect	bssCOMMON,global,class=COMMON,space=1,delta=1,noexec
     7                           	psect	bssBANK0,global,class=BANK0,space=1,delta=1,noexec
     8                           	psect	clrtext,global,class=CODE,delta=2
     9                           	psect	cstackCOMMON,global,class=COMMON,space=1,delta=1,noexec
    10                           	psect	cstackBANK0,global,class=BANK0,space=1,delta=1,noexec
    11                           	psect	maintext,global,class=CODE,merge=1,split=1,delta=2
    12                           	psect	text1,local,class=CODE,merge=1,delta=2
    13                           	psect	text2,local,class=CODE,merge=1,delta=2
    14                           	psect	text3,local,class=CODE,merge=1,delta=2
    15                           	psect	text4,local,class=CODE,merge=1,delta=2
    16                           	psect	text5,local,class=CODE,merge=1,delta=2
    17                           	psect	text6,local,class=CODE,merge=1,delta=2
    18                           	psect	text7,local,class=CODE,merge=1,delta=2
    19                           	psect	text8,local,class=CODE,merge=1,delta=2
    20                           	psect	text9,local,class=CODE,merge=1,inline,delta=2
    21                           	psect	text10,local,class=CODE,merge=1,delta=2
    22                           	psect	text11,local,class=CODE,merge=1,delta=2
    23                           	psect	text12,local,class=CODE,merge=1,delta=2
    24                           	psect	text13,local,class=CODE,merge=1,inline,delta=2
    25                           	psect	text14,local,class=CODE,merge=1,inline,delta=2
    26                           	psect	text15,local,class=CODE,merge=1,delta=2
    27                           	psect	text16,local,class=CODE,merge=1,delta=2
    28                           	psect	text17,local,class=CODE,merge=1,delta=2
    29                           	psect	text18,local,class=CODE,merge=1,delta=2
    30                           	psect	text19,local,class=CODE,merge=1,inline,delta=2
    31                           	psect	text20,local,class=CODE,merge=1,inline,delta=2
    32                           	psect	text21,local,class=CODE,merge=1,delta=2
    33                           	psect	text22,local,class=CODE,merge=1,inline,delta=2
    34                           	psect	intentry,global,class=CODE,delta=2
    35                           	psect	text24,local,class=CODE,merge=1,delta=2
    36                           	psect	text25,local,class=CODE,merge=1,delta=2
    37                           	psect	text26,local,class=CODE,merge=1,delta=2
    38                           	psect	text27,local,class=CODE,merge=1,delta=2
    39                           	psect	text28,local,class=CODE,merge=1,delta=2
    40                           	psect	text29,local,class=CODE,merge=1,inline,delta=2
    41                           	psect	text30,local,class=CODE,merge=1,inline,delta=2
    42                           	psect	text31,local,class=CODE,merge=1,delta=2
    43                           	psect	text32,local,class=CODE,merge=1,delta=2
    44                           	psect	text33,local,class=CODE,merge=1,inline,delta=2
    45                           	psect	text34,local,class=CODE,merge=1,inline,delta=2
    46                           	psect	text35,local,class=CODE,merge=1,inline,delta=2
    47                           	psect	text36,local,class=CODE,merge=1,inline,delta=2
    48                           	psect	text37,local,class=CODE,merge=1,inline,delta=2
    49                           	psect	text38,local,class=CODE,merge=1,delta=2
    50                           	psect	text39,local,class=CODE,merge=1,delta=2
    51                           	psect	text40,local,class=CODE,merge=1,inline,delta=2
    52                           	psect	idloc,global,abs,ovrld,class=IDLOC,space=5,delta=2,noexec
    53                           	psect	config,global,abs,ovrld,class=CONFIG,space=4,delta=2,noexec
    54                           	dabs	1,0x7E,2
    55     0000                     
    56                           ; Generated 19/07/2022 GMT
    57                           ; 
    58                           ; Copyright © 2022, Microchip Technology Inc. and its subsidiaries ("Microchip")
    59                           ; All rights reserved.
    60                           ; 
    61                           ; This software is developed by Microchip Technology Inc. and its subsidiaries ("Microch
      +                          ip").
    62                           ; 
    63                           ; Redistribution and use in source and binary forms, with or without modification, are
    64                           ; permitted provided that the following conditions are met:
    65                           ; 
    66                           ;     1. Redistributions of source code must retain the above copyright notice, this lis
      +                          t of
    67                           ;        conditions and the following disclaimer.
    68                           ; 
    69                           ;     2. Redistributions in binary form must reproduce the above copyright notice, this 
      +                          list
    70                           ;        of conditions and the following disclaimer in the documentation and/or other
    71                           ;        materials provided with the distribution. Publication is not required when
    72                           ;        this file is used in an embedded application.
    73                           ; 
    74                           ;     3. Microchip's name may not be used to endorse or promote products derived from th
      +                          is
    75                           ;        software without specific prior written permission.
    76                           ; 
    77                           ; THIS SOFTWARE IS PROVIDED BY MICROCHIP "AS IS" AND ANY EXPRESS OR IMPLIED WARRANTIES,
    78                           ; INCLUDING, BUT NOT LIMITED TO, THE IMPLIED WARRANTIES OF MERCHANTABILITY AND FITNESS F
      +                          OR
    79                           ; PURPOSE ARE DISCLAIMED.  IN NO EVENT SHALL MICROCHIP BE LIABLE FOR ANY DIRECT, INDIREC
      +                          T,
    80                           ; INCIDENTAL, SPECIAL, EXEMPLARY, OR CONSEQUENTIAL DAMAGES (INCLUDING BUT NOT LIMITED TO
    81                           ; PROCUREMENT OF SUBSTITUTE GOODS OR SERVICES; LOSS OF USE, DATA OR PROFITS; OR BUSINESS
    82                           ; INTERRUPTION) HOWSOEVER CAUSED AND ON ANY THEORY OF LIABILITY, WHETHER IN CONTRACT, ST
      +                          RICT
    83                           ; LIABILITY, OR TORT (INCLUDING NEGLIGENCE OR OTHERWISE) ARISING IN ANY WAY OUT OF THE U
      +                          SE OF
    84                           ; THIS SOFTWARE, EVEN IF ADVISED OF THE POSSIBILITY OF SUCH DAMAGE.
    85                           ; 
    86                           ; 
    87                           ; Code-generator required, PIC16F15223 Definitions
    88                           ; 
    89                           ; SFR Addresses
    90     0000                     	;# 
    91     0001                     	;# 
    92     0002                     	;# 
    93     0003                     	;# 
    94     0004                     	;# 
    95     0005                     	;# 
    96     0006                     	;# 
    97     0007                     	;# 
    98     0008                     	;# 
    99     0009                     	;# 
   100     000A                     	;# 
   101     000B                     	;# 
   102     000C                     	;# 
   103     000E                     	;# 
   104     0012                     	;# 
   105     0014                     	;# 
   106     0018                     	;# 
   107     001A                     	;# 
   108     009A                     	;# 
   109     009B                     	;# 
   110     009B                     	;# 
   111     009C                     	;# 
   112     009D                     	;# 
   113     009E                     	;# 
   114     009F                     	;# 
   115     010E                     	;# 
   116     010F                     	;# 
   117     0119                     	;# 
   118     011A                     	;# 
   119     011B                     	;# 
   120     011B                     	;# 
   121     011C                     	;# 
   122     011D                     	;# 
   123     011E                     	;# 
   124     011F                     	;# 
   125     018C                     	;# 
   126     018D                     	;# 
   127     018E                     	;# 
   128     018F                     	;# 
   129     0190                     	;# 
   130     0191                     	;# 
   131     0192                     	;# 
   132     020C                     	;# 
   133     020D                     	;# 
   134     020E                     	;# 
   135     020E                     	;# 
   136     020F                     	;# 
   137     020F                     	;# 
   138     0210                     	;# 
   139     0210                     	;# 
   140     0211                     	;# 
   141     0211                     	;# 
   142     028C                     	;# 
   143     028C                     	;# 
   144     028D                     	;# 
   145     028D                     	;# 
   146     028E                     	;# 
   147     028F                     	;# 
   148     0290                     	;# 
   149     0291                     	;# 
   150     030C                     	;# 
   151     030C                     	;# 
   152     030D                     	;# 
   153     030E                     	;# 
   154     030F                     	;# 
   155     0310                     	;# 
   156     0310                     	;# 
   157     0311                     	;# 
   158     0312                     	;# 
   159     0313                     	;# 
   160     0314                     	;# 
   161     0314                     	;# 
   162     0315                     	;# 
   163     0316                     	;# 
   164     0318                     	;# 
   165     0318                     	;# 
   166     0319                     	;# 
   167     031A                     	;# 
   168     059C                     	;# 
   169     059C                     	;# 
   170     059D                     	;# 
   171     059D                     	;# 
   172     059E                     	;# 
   173     059F                     	;# 
   174     070C                     	;# 
   175     070D                     	;# 
   176     070E                     	;# 
   177     0716                     	;# 
   178     0717                     	;# 
   179     0718                     	;# 
   180     080C                     	;# 
   181     0811                     	;# 
   182     0813                     	;# 
   183     0814                     	;# 
   184     081A                     	;# 
   185     081A                     	;# 
   186     081B                     	;# 
   187     081C                     	;# 
   188     081C                     	;# 
   189     081D                     	;# 
   190     081E                     	;# 
   191     081F                     	;# 
   192     088E                     	;# 
   193     0890                     	;# 
   194     0891                     	;# 
   195     0892                     	;# 
   196     0893                     	;# 
   197     090C                     	;# 
   198     1E8F                     	;# 
   199     1E90                     	;# 
   200     1E91                     	;# 
   201     1E92                     	;# 
   202     1E93                     	;# 
   203     1E9C                     	;# 
   204     1EA1                     	;# 
   205     1EA2                     	;# 
   206     1EC3                     	;# 
   207     1EC5                     	;# 
   208     1EC6                     	;# 
   209     1EC7                     	;# 
   210     1ECB                     	;# 
   211     1ECB                     	;# 
   212     1ECB                     	;# 
   213     1ECC                     	;# 
   214     1ECC                     	;# 
   215     1ECC                     	;# 
   216     1F10                     	;# 
   217     1F11                     	;# 
   218     1F12                     	;# 
   219     1F14                     	;# 
   220     1F15                     	;# 
   221     1F20                     	;# 
   222     1F21                     	;# 
   223     1F22                     	;# 
   224     1F23                     	;# 
   225     1F24                     	;# 
   226     1F25                     	;# 
   227     1F38                     	;# 
   228     1F39                     	;# 
   229     1F3A                     	;# 
   230     1F3B                     	;# 
   231     1F3C                     	;# 
   232     1F3D                     	;# 
   233     1F3E                     	;# 
   234     1F3F                     	;# 
   235     1F4E                     	;# 
   236     1F4F                     	;# 
   237     1F50                     	;# 
   238     1F51                     	;# 
   239     1F52                     	;# 
   240     1F53                     	;# 
   241     1F54                     	;# 
   242     1F55                     	;# 
   243     1FE4                     	;# 
   244     1FE5                     	;# 
   245     1FE6                     	;# 
   246     1FE7                     	;# 
   247     1FE8                     	;# 
   248     1FE8                     	;# 
   249     1FE9                     	;# 
   250     1FEA                     	;# 
   251     1FEB                     	;# 
   252     1FED                     	;# 
   253     1FEE                     	;# 
   254     1FEF                     	;# 
   255     0000                     	;# 
   256     0001                     	;# 
   257     0002                     	;# 
   258     0003                     	;# 
   259     0004                     	;# 
   260     0005                     	;# 
   261     0006                     	;# 
   262     0007                     	;# 
   263     0008                     	;# 
   264     0009                     	;# 
   265     000A                     	;# 
   266     000B                     	;# 
   267     000C                     	;# 
   268     000E                     	;# 
   269     0012                     	;# 
   270     0014                     	;# 
   271     0018                     	;# 
   272     001A                     	;# 
   273     009A                     	;# 
   274     009B                     	;# 
   275     009B                     	;# 
   276     009C                     	;# 
   277     009D                     	;# 
   278     009E                     	;# 
   279     009F                     	;# 
   280     010E                     	;# 
   281     010F                     	;# 
   282     0119                     	;# 
   283     011A                     	;# 
   284     011B                     	;# 
   285     011B                     	;# 
   286     011C                     	;# 
   287     011D                     	;# 
   288     011E                     	;# 
   289     011F                     	;# 
   290     018C                     	;# 
   291     018D                     	;# 
   292     018E                     	;# 
   293     018F                     	;# 
   294     0190                     	;# 
   295     0191                     	;# 
   296     0192                     	;# 
   297     020C                     	;# 
   298     020D                     	;# 
   299     020E                     	;# 
   300     020E                     	;# 
   301     020F                     	;# 
   302     020F                     	;# 
   303     0210                     	;# 
   304     0210                     	;# 
   305     0211                     	;# 
   306     0211                     	;# 
   307     028C                     	;# 
   308     028C                     	;# 
   309     028D                     	;# 
   310     028D                     	;# 
   311     028E                     	;# 
   312     028F                     	;# 
   313     0290                     	;# 
   314     0291                     	;# 
   315     030C                     	;# 
   316     030C                     	;# 
   317     030D                     	;# 
   318     030E                     	;# 
   319     030F                     	;# 
   320     0310                     	;# 
   321     0310                     	;# 
   322     0311                     	;# 
   323     0312                     	;# 
   324     0313                     	;# 
   325     0314                     	;# 
   326     0314                     	;# 
   327     0315                     	;# 
   328     0316                     	;# 
   329     0318                     	;# 
   330     0318                     	;# 
   331     0319                     	;# 
   332     031A                     	;# 
   333     059C                     	;# 
   334     059C                     	;# 
   335     059D                     	;# 
   336     059D                     	;# 
   337     059E                     	;# 
   338     059F                     	;# 
   339     070C                     	;# 
   340     070D                     	;# 
   341     070E                     	;# 
   342     0716                     	;# 
   343     0717                     	;# 
   344     0718                     	;# 
   345     080C                     	;# 
   346     0811                     	;# 
   347     0813                     	;# 
   348     0814                     	;# 
   349     081A                     	;# 
   350     081A                     	;# 
   351     081B                     	;# 
   352     081C                     	;# 
   353     081C                     	;# 
   354     081D                     	;# 
   355     081E                     	;# 
   356     081F                     	;# 
   357     088E                     	;# 
   358     0890                     	;# 
   359     0891                     	;# 
   360     0892                     	;# 
   361     0893                     	;# 
   362     090C                     	;# 
   363     1E8F                     	;# 
   364     1E90                     	;# 
   365     1E91                     	;# 
   366     1E92                     	;# 
   367     1E93                     	;# 
   368     1E9C                     	;# 
   369     1EA1                     	;# 
   370     1EA2                     	;# 
   371     1EC3                     	;# 
   372     1EC5                     	;# 
   373     1EC6                     	;# 
   374     1EC7                     	;# 
   375     1ECB                     	;# 
   376     1ECB                     	;# 
   377     1ECB                     	;# 
   378     1ECC                     	;# 
   379     1ECC                     	;# 
   380     1ECC                     	;# 
   381     1F10                     	;# 
   382     1F11                     	;# 
   383     1F12                     	;# 
   384     1F14                     	;# 
   385     1F15                     	;# 
   386     1F20                     	;# 
   387     1F21                     	;# 
   388     1F22                     	;# 
   389     1F23                     	;# 
   390     1F24                     	;# 
   391     1F25                     	;# 
   392     1F38                     	;# 
   393     1F39                     	;# 
   394     1F3A                     	;# 
   395     1F3B                     	;# 
   396     1F3C                     	;# 
   397     1F3D                     	;# 
   398     1F3E                     	;# 
   399     1F3F                     	;# 
   400     1F4E                     	;# 
   401     1F4F                     	;# 
   402     1F50                     	;# 
   403     1F51                     	;# 
   404     1F52                     	;# 
   405     1F53                     	;# 
   406     1F54                     	;# 
   407     1F55                     	;# 
   408     1FE4                     	;# 
   409     1FE5                     	;# 
   410     1FE6                     	;# 
   411     1FE7                     	;# 
   412     1FE8                     	;# 
   413     1FE8                     	;# 
   414     1FE9                     	;# 
   415     1FEA                     	;# 
   416     1FEB                     	;# 
   417     1FED                     	;# 
   418     1FEE                     	;# 
   419     1FEF                     	;# 
   420     0000                     	;# 
   421     0001                     	;# 
   422     0002                     	;# 
   423     0003                     	;# 
   424     0004                     	;# 
   425     0005                     	;# 
   426     0006                     	;# 
   427     0007                     	;# 
   428     0008                     	;# 
   429     0009                     	;# 
   430     000A                     	;# 
   431     000B                     	;# 
   432     000C                     	;# 
   433     000E                     	;# 
   434     0012                     	;# 
   435     0014                     	;# 
   436     0018                     	;# 
   437     001A                     	;# 
   438     009A                     	;# 
   439     009B                     	;# 
   440     009B                     	;# 
   441     009C                     	;# 
   442     009D                     	;# 
   443     009E                     	;# 
   444     009F                     	;# 
   445     010E                     	;# 
   446     010F                     	;# 
   447     0119                     	;# 
   448     011A                     	;# 
   449     011B                     	;# 
   450     011B                     	;# 
   451     011C                     	;# 
   452     011D                     	;# 
   453     011E                     	;# 
   454     011F                     	;# 
   455     018C                     	;# 
   456     018D                     	;# 
   457     018E                     	;# 
   458     018F                     	;# 
   459     0190                     	;# 
   460     0191                     	;# 
   461     0192                     	;# 
   462     020C                     	;# 
   463     020D                     	;# 
   464     020E                     	;# 
   465     020E                     	;# 
   466     020F                     	;# 
   467     020F                     	;# 
   468     0210                     	;# 
   469     0210                     	;# 
   470     0211                     	;# 
   471     0211                     	;# 
   472     028C                     	;# 
   473     028C                     	;# 
   474     028D                     	;# 
   475     028D                     	;# 
   476     028E                     	;# 
   477     028F                     	;# 
   478     0290                     	;# 
   479     0291                     	;# 
   480     030C                     	;# 
   481     030C                     	;# 
   482     030D                     	;# 
   483     030E                     	;# 
   484     030F                     	;# 
   485     0310                     	;# 
   486     0310                     	;# 
   487     0311                     	;# 
   488     0312                     	;# 
   489     0313                     	;# 
   490     0314                     	;# 
   491     0314                     	;# 
   492     0315                     	;# 
   493     0316                     	;# 
   494     0318                     	;# 
   495     0318                     	;# 
   496     0319                     	;# 
   497     031A                     	;# 
   498     059C                     	;# 
   499     059C                     	;# 
   500     059D                     	;# 
   501     059D                     	;# 
   502     059E                     	;# 
   503     059F                     	;# 
   504     070C                     	;# 
   505     070D                     	;# 
   506     070E                     	;# 
   507     0716                     	;# 
   508     0717                     	;# 
   509     0718                     	;# 
   510     080C                     	;# 
   511     0811                     	;# 
   512     0813                     	;# 
   513     0814                     	;# 
   514     081A                     	;# 
   515     081A                     	;# 
   516     081B                     	;# 
   517     081C                     	;# 
   518     081C                     	;# 
   519     081D                     	;# 
   520     081E                     	;# 
   521     081F                     	;# 
   522     088E                     	;# 
   523     0890                     	;# 
   524     0891                     	;# 
   525     0892                     	;# 
   526     0893                     	;# 
   527     090C                     	;# 
   528     1E8F                     	;# 
   529     1E90                     	;# 
   530     1E91                     	;# 
   531     1E92                     	;# 
   532     1E93                     	;# 
   533     1E9C                     	;# 
   534     1EA1                     	;# 
   535     1EA2                     	;# 
   536     1EC3                     	;# 
   537     1EC5                     	;# 
   538     1EC6                     	;# 
   539     1EC7                     	;# 
   540     1ECB                     	;# 
   541     1ECB                     	;# 
   542     1ECB                     	;# 
   543     1ECC                     	;# 
   544     1ECC                     	;# 
   545     1ECC                     	;# 
   546     1F10                     	;# 
   547     1F11                     	;# 
   548     1F12                     	;# 
   549     1F14                     	;# 
   550     1F15                     	;# 
   551     1F20                     	;# 
   552     1F21                     	;# 
   553     1F22                     	;# 
   554     1F23                     	;# 
   555     1F24                     	;# 
   556     1F25                     	;# 
   557     1F38                     	;# 
   558     1F39                     	;# 
   559     1F3A                     	;# 
   560     1F3B                     	;# 
   561     1F3C                     	;# 
   562     1F3D                     	;# 
   563     1F3E                     	;# 
   564     1F3F                     	;# 
   565     1F4E                     	;# 
   566     1F4F                     	;# 
   567     1F50                     	;# 
   568     1F51                     	;# 
   569     1F52                     	;# 
   570     1F53                     	;# 
   571     1F54                     	;# 
   572     1F55                     	;# 
   573     1FE4                     	;# 
   574     1FE5                     	;# 
   575     1FE6                     	;# 
   576     1FE7                     	;# 
   577     1FE8                     	;# 
   578     1FE8                     	;# 
   579     1FE9                     	;# 
   580     1FEA                     	;# 
   581     1FEB                     	;# 
   582     1FED                     	;# 
   583     1FEE                     	;# 
   584     1FEF                     	;# 
   585     0000                     	;# 
   586     0001                     	;# 
   587     0002                     	;# 
   588     0003                     	;# 
   589     0004                     	;# 
   590     0005                     	;# 
   591     0006                     	;# 
   592     0007                     	;# 
   593     0008                     	;# 
   594     0009                     	;# 
   595     000A                     	;# 
   596     000B                     	;# 
   597     000C                     	;# 
   598     000E                     	;# 
   599     0012                     	;# 
   600     0014                     	;# 
   601     0018                     	;# 
   602     001A                     	;# 
   603     009A                     	;# 
   604     009B                     	;# 
   605     009B                     	;# 
   606     009C                     	;# 
   607     009D                     	;# 
   608     009E                     	;# 
   609     009F                     	;# 
   610     010E                     	;# 
   611     010F                     	;# 
   612     0119                     	;# 
   613     011A                     	;# 
   614     011B                     	;# 
   615     011B                     	;# 
   616     011C                     	;# 
   617     011D                     	;# 
   618     011E                     	;# 
   619     011F                     	;# 
   620     018C                     	;# 
   621     018D                     	;# 
   622     018E                     	;# 
   623     018F                     	;# 
   624     0190                     	;# 
   625     0191                     	;# 
   626     0192                     	;# 
   627     020C                     	;# 
   628     020D                     	;# 
   629     020E                     	;# 
   630     020E                     	;# 
   631     020F                     	;# 
   632     020F                     	;# 
   633     0210                     	;# 
   634     0210                     	;# 
   635     0211                     	;# 
   636     0211                     	;# 
   637     028C                     	;# 
   638     028C                     	;# 
   639     028D                     	;# 
   640     028D                     	;# 
   641     028E                     	;# 
   642     028F                     	;# 
   643     0290                     	;# 
   644     0291                     	;# 
   645     030C                     	;# 
   646     030C                     	;# 
   647     030D                     	;# 
   648     030E                     	;# 
   649     030F                     	;# 
   650     0310                     	;# 
   651     0310                     	;# 
   652     0311                     	;# 
   653     0312                     	;# 
   654     0313                     	;# 
   655     0314                     	;# 
   656     0314                     	;# 
   657     0315                     	;# 
   658     0316                     	;# 
   659     0318                     	;# 
   660     0318                     	;# 
   661     0319                     	;# 
   662     031A                     	;# 
   663     059C                     	;# 
   664     059C                     	;# 
   665     059D                     	;# 
   666     059D                     	;# 
   667     059E                     	;# 
   668     059F                     	;# 
   669     070C                     	;# 
   670     070D                     	;# 
   671     070E                     	;# 
   672     0716                     	;# 
   673     0717                     	;# 
   674     0718                     	;# 
   675     080C                     	;# 
   676     0811                     	;# 
   677     0813                     	;# 
   678     0814                     	;# 
   679     081A                     	;# 
   680     081A                     	;# 
   681     081B                     	;# 
   682     081C                     	;# 
   683     081C                     	;# 
   684     081D                     	;# 
   685     081E                     	;# 
   686     081F                     	;# 
   687     088E                     	;# 
   688     0890                     	;# 
   689     0891                     	;# 
   690     0892                     	;# 
   691     0893                     	;# 
   692     090C                     	;# 
   693     1E8F                     	;# 
   694     1E90                     	;# 
   695     1E91                     	;# 
   696     1E92                     	;# 
   697     1E93                     	;# 
   698     1E9C                     	;# 
   699     1EA1                     	;# 
   700     1EA2                     	;# 
   701     1EC3                     	;# 
   702     1EC5                     	;# 
   703     1EC6                     	;# 
   704     1EC7                     	;# 
   705     1ECB                     	;# 
   706     1ECB                     	;# 
   707     1ECB                     	;# 
   708     1ECC                     	;# 
   709     1ECC                     	;# 
   710     1ECC                     	;# 
   711     1F10                     	;# 
   712     1F11                     	;# 
   713     1F12                     	;# 
   714     1F14                     	;# 
   715     1F15                     	;# 
   716     1F20                     	;# 
   717     1F21                     	;# 
   718     1F22                     	;# 
   719     1F23                     	;# 
   720     1F24                     	;# 
   721     1F25                     	;# 
   722     1F38                     	;# 
   723     1F39                     	;# 
   724     1F3A                     	;# 
   725     1F3B                     	;# 
   726     1F3C                     	;# 
   727     1F3D                     	;# 
   728     1F3E                     	;# 
   729     1F3F                     	;# 
   730     1F4E                     	;# 
   731     1F4F                     	;# 
   732     1F50                     	;# 
   733     1F51                     	;# 
   734     1F52                     	;# 
   735     1F53                     	;# 
   736     1F54                     	;# 
   737     1F55                     	;# 
   738     1FE4                     	;# 
   739     1FE5                     	;# 
   740     1FE6                     	;# 
   741     1FE7                     	;# 
   742     1FE8                     	;# 
   743     1FE8                     	;# 
   744     1FE9                     	;# 
   745     1FEA                     	;# 
   746     1FEB                     	;# 
   747     1FED                     	;# 
   748     1FEE                     	;# 
   749     1FEF                     	;# 
   750     0000                     	;# 
   751     0001                     	;# 
   752     0002                     	;# 
   753     0003                     	;# 
   754     0004                     	;# 
   755     0005                     	;# 
   756     0006                     	;# 
   757     0007                     	;# 
   758     0008                     	;# 
   759     0009                     	;# 
   760     000A                     	;# 
   761     000B                     	;# 
   762     000C                     	;# 
   763     000E                     	;# 
   764     0012                     	;# 
   765     0014                     	;# 
   766     0018                     	;# 
   767     001A                     	;# 
   768     009A                     	;# 
   769     009B                     	;# 
   770     009B                     	;# 
   771     009C                     	;# 
   772     009D                     	;# 
   773     009E                     	;# 
   774     009F                     	;# 
   775     010E                     	;# 
   776     010F                     	;# 
   777     0119                     	;# 
   778     011A                     	;# 
   779     011B                     	;# 
   780     011B                     	;# 
   781     011C                     	;# 
   782     011D                     	;# 
   783     011E                     	;# 
   784     011F                     	;# 
   785     018C                     	;# 
   786     018D                     	;# 
   787     018E                     	;# 
   788     018F                     	;# 
   789     0190                     	;# 
   790     0191                     	;# 
   791     0192                     	;# 
   792     020C                     	;# 
   793     020D                     	;# 
   794     020E                     	;# 
   795     020E                     	;# 
   796     020F                     	;# 
   797     020F                     	;# 
   798     0210                     	;# 
   799     0210                     	;# 
   800     0211                     	;# 
   801     0211                     	;# 
   802     028C                     	;# 
   803     028C                     	;# 
   804     028D                     	;# 
   805     028D                     	;# 
   806     028E                     	;# 
   807     028F                     	;# 
   808     0290                     	;# 
   809     0291                     	;# 
   810     030C                     	;# 
   811     030C                     	;# 
   812     030D                     	;# 
   813     030E                     	;# 
   814     030F                     	;# 
   815     0310                     	;# 
   816     0310                     	;# 
   817     0311                     	;# 
   818     0312                     	;# 
   819     0313                     	;# 
   820     0314                     	;# 
   821     0314                     	;# 
   822     0315                     	;# 
   823     0316                     	;# 
   824     0318                     	;# 
   825     0318                     	;# 
   826     0319                     	;# 
   827     031A                     	;# 
   828     059C                     	;# 
   829     059C                     	;# 
   830     059D                     	;# 
   831     059D                     	;# 
   832     059E                     	;# 
   833     059F                     	;# 
   834     070C                     	;# 
   835     070D                     	;# 
   836     070E                     	;# 
   837     0716                     	;# 
   838     0717                     	;# 
   839     0718                     	;# 
   840     080C                     	;# 
   841     0811                     	;# 
   842     0813                     	;# 
   843     0814                     	;# 
   844     081A                     	;# 
   845     081A                     	;# 
   846     081B                     	;# 
   847     081C                     	;# 
   848     081C                     	;# 
   849     081D                     	;# 
   850     081E                     	;# 
   851     081F                     	;# 
   852     088E                     	;# 
   853     0890                     	;# 
   854     0891                     	;# 
   855     0892                     	;# 
   856     0893                     	;# 
   857     090C                     	;# 
   858     1E8F                     	;# 
   859     1E90                     	;# 
   860     1E91                     	;# 
   861     1E92                     	;# 
   862     1E93                     	;# 
   863     1E9C                     	;# 
   864     1EA1                     	;# 
   865     1EA2                     	;# 
   866     1EC3                     	;# 
   867     1EC5                     	;# 
   868     1EC6                     	;# 
   869     1EC7                     	;# 
   870     1ECB                     	;# 
   871     1ECB                     	;# 
   872     1ECB                     	;# 
   873     1ECC                     	;# 
   874     1ECC                     	;# 
   875     1ECC                     	;# 
   876     1F10                     	;# 
   877     1F11                     	;# 
   878     1F12                     	;# 
   879     1F14                     	;# 
   880     1F15                     	;# 
   881     1F20                     	;# 
   882     1F21                     	;# 
   883     1F22                     	;# 
   884     1F23                     	;# 
   885     1F24                     	;# 
   886     1F25                     	;# 
   887     1F38                     	;# 
   888     1F39                     	;# 
   889     1F3A                     	;# 
   890     1F3B                     	;# 
   891     1F3C                     	;# 
   892     1F3D                     	;# 
   893     1F3E                     	;# 
   894     1F3F                     	;# 
   895     1F4E                     	;# 
   896     1F4F                     	;# 
   897     1F50                     	;# 
   898     1F51                     	;# 
   899     1F52                     	;# 
   900     1F53                     	;# 
   901     1F54                     	;# 
   902     1F55                     	;# 
   903     1FE4                     	;# 
   904     1FE5                     	;# 
   905     1FE6                     	;# 
   906     1FE7                     	;# 
   907     1FE8                     	;# 
   908     1FE8                     	;# 
   909     1FE9                     	;# 
   910     1FEA                     	;# 
   911     1FEB                     	;# 
   912     1FED                     	;# 
   913     1FEE                     	;# 
   914     1FEF                     	;# 
   915     0000                     	;# 
   916     0001                     	;# 
   917     0002                     	;# 
   918     0003                     	;# 
   919     0004                     	;# 
   920     0005                     	;# 
   921     0006                     	;# 
   922     0007                     	;# 
   923     0008                     	;# 
   924     0009                     	;# 
   925     000A                     	;# 
   926     000B                     	;# 
   927     000C                     	;# 
   928     000E                     	;# 
   929     0012                     	;# 
   930     0014                     	;# 
   931     0018                     	;# 
   932     001A                     	;# 
   933     009A                     	;# 
   934     009B                     	;# 
   935     009B                     	;# 
   936     009C                     	;# 
   937     009D                     	;# 
   938     009E                     	;# 
   939     009F                     	;# 
   940     010E                     	;# 
   941     010F                     	;# 
   942     0119                     	;# 
   943     011A                     	;# 
   944     011B                     	;# 
   945     011B                     	;# 
   946     011C                     	;# 
   947     011D                     	;# 
   948     011E                     	;# 
   949     011F                     	;# 
   950     018C                     	;# 
   951     018D                     	;# 
   952     018E                     	;# 
   953     018F                     	;# 
   954     0190                     	;# 
   955     0191                     	;# 
   956     0192                     	;# 
   957     020C                     	;# 
   958     020D                     	;# 
   959     020E                     	;# 
   960     020E                     	;# 
   961     020F                     	;# 
   962     020F                     	;# 
   963     0210                     	;# 
   964     0210                     	;# 
   965     0211                     	;# 
   966     0211                     	;# 
   967     028C                     	;# 
   968     028C                     	;# 
   969     028D                     	;# 
   970     028D                     	;# 
   971     028E                     	;# 
   972     028F                     	;# 
   973     0290                     	;# 
   974     0291                     	;# 
   975     030C                     	;# 
   976     030C                     	;# 
   977     030D                     	;# 
   978     030E                     	;# 
   979     030F                     	;# 
   980     0310                     	;# 
   981     0310                     	;# 
   982     0311                     	;# 
   983     0312                     	;# 
   984     0313                     	;# 
   985     0314                     	;# 
   986     0314                     	;# 
   987     0315                     	;# 
   988     0316                     	;# 
   989     0318                     	;# 
   990     0318                     	;# 
   991     0319                     	;# 
   992     031A                     	;# 
   993     059C                     	;# 
   994     059C                     	;# 
   995     059D                     	;# 
   996     059D                     	;# 
   997     059E                     	;# 
   998     059F                     	;# 
   999     070C                     	;# 
  1000     070D                     	;# 
  1001     070E                     	;# 
  1002     0716                     	;# 
  1003     0717                     	;# 
  1004     0718                     	;# 
  1005     080C                     	;# 
  1006     0811                     	;# 
  1007     0813                     	;# 
  1008     0814                     	;# 
  1009     081A                     	;# 
  1010     081A                     	;# 
  1011     081B                     	;# 
  1012     081C                     	;# 
  1013     081C                     	;# 
  1014     081D                     	;# 
  1015     081E                     	;# 
  1016     081F                     	;# 
  1017     088E                     	;# 
  1018     0890                     	;# 
  1019     0891                     	;# 
  1020     0892                     	;# 
  1021     0893                     	;# 
  1022     090C                     	;# 
  1023     1E8F                     	;# 
  1024     1E90                     	;# 
  1025     1E91                     	;# 
  1026     1E92                     	;# 
  1027     1E93                     	;# 
  1028     1E9C                     	;# 
  1029     1EA1                     	;# 
  1030     1EA2                     	;# 
  1031     1EC3                     	;# 
  1032     1EC5                     	;# 
  1033     1EC6                     	;# 
  1034     1EC7                     	;# 
  1035     1ECB                     	;# 
  1036     1ECB                     	;# 
  1037     1ECB                     	;# 
  1038     1ECC                     	;# 
  1039     1ECC                     	;# 
  1040     1ECC                     	;# 
  1041     1F10                     	;# 
  1042     1F11                     	;# 
  1043     1F12                     	;# 
  1044     1F14                     	;# 
  1045     1F15                     	;# 
  1046     1F20                     	;# 
  1047     1F21                     	;# 
  1048     1F22                     	;# 
  1049     1F23                     	;# 
  1050     1F24                     	;# 
  1051     1F25                     	;# 
  1052     1F38                     	;# 
  1053     1F39                     	;# 
  1054     1F3A                     	;# 
  1055     1F3B                     	;# 
  1056     1F3C                     	;# 
  1057     1F3D                     	;# 
  1058     1F3E                     	;# 
  1059     1F3F                     	;# 
  1060     1F4E                     	;# 
  1061     1F4F                     	;# 
  1062     1F50                     	;# 
  1063     1F51                     	;# 
  1064     1F52                     	;# 
  1065     1F53                     	;# 
  1066     1F54                     	;# 
  1067     1F55                     	;# 
  1068     1FE4                     	;# 
  1069     1FE5                     	;# 
  1070     1FE6                     	;# 
  1071     1FE7                     	;# 
  1072     1FE8                     	;# 
  1073     1FE8                     	;# 
  1074     1FE9                     	;# 
  1075     1FEA                     	;# 
  1076     1FEB                     	;# 
  1077     1FED                     	;# 
  1078     1FEE                     	;# 
  1079     1FEF                     	;# 
  1080                           
  1081 ;; Function _I2C1_SlaveDefWrColInterruptHandler is unused but had its address taken
  1082     0000                     
  1083 ;; Function _I2C1_SlaveDefBusColInterruptHandler is unused but had its address taken
  1084     0000                     
  1085                           	psect	nvBANK0
  1086     0031                     __pnvBANK0:
  1087     0031                     _TMR0_InterruptHandler:
  1088     0031                     	ds	2
  1089     0018                     _LATAbits	set	24
  1090     000C                     _PORTA	set	12
  1091     000E                     _PORTC	set	14
  1092     000B                     _INTCONbits	set	11
  1093     0014                     _TRISC	set	20
  1094     0012                     _TRISA	set	18
  1095     001A                     _LATC	set	26
  1096     0018                     _LATA	set	24
  1097     018C                     _SSP1BUF	set	396
  1098     0191                     _SSP1CON2bits	set	401
  1099     018F                     _SSP1STATbits	set	399
  1100     018E                     _SSP1MSK	set	398
  1101     018D                     _SSP1ADD	set	397
  1102     0190                     _SSP1CON1bits	set	400
  1103     0191                     _SSP1CON2	set	401
  1104     0190                     _SSP1CON1	set	400
  1105     018F                     _SSP1STAT	set	399
  1106     059E                     _T0CON0bits	set	1438
  1107     059E                     _T0CON0	set	1438
  1108     059C                     _TMR0L	set	1436
  1109     059D                     _TMR0H	set	1437
  1110     059F                     _T0CON1	set	1439
  1111     070D                     _PIR1bits	set	1805
  1112     0717                     _PIE1bits	set	1815
  1113     070C                     _PIR0bits	set	1804
  1114     0716                     _PIE0bits	set	1814
  1115     080C                     _WDTCON	set	2060
  1116     0892                     _OSCTUNE	set	2194
  1117     0893                     _OSCFRQ	set	2195
  1118     0891                     _OSCEN	set	2193
  1119     1EC6                     _SSP1DATPPS	set	7878
  1120     1EC5                     _SSP1CLKPPS	set	7877
  1121     1F21                     _RC1PPS	set	7969
  1122     1F20                     _RC0PPS	set	7968
  1123     1F52                     _INLVLC	set	8018
  1124     1F3C                     _INLVLA	set	7996
  1125     1F51                     _SLRCONC	set	8017
  1126     1F3B                     _SLRCONA	set	7995
  1127     1F50                     _ODCONC	set	8016
  1128     1F3A                     _ODCONA	set	7994
  1129     1F4F                     _WPUC	set	8015
  1130     1F39                     _WPUA	set	7993
  1131     1F38                     _ANSELA	set	7992
  1132     1F4E                     _ANSELC	set	8014
  1133                           
  1134                           	psect	cinit
  1135     0032                     start_initialization:	
  1136                           ; #config settings
  1137                           
  1138     0032                     __initialization:
  1139                           
  1140                           ; Clear objects allocated to COMMON
  1141     0032  01F7               	clrf	__pbssCOMMON& (0+127)
  1142     0033  01F8               	clrf	(__pbssCOMMON+1)& (0+127)
  1143     0034  01F9               	clrf	(__pbssCOMMON+2)& (0+127)
  1144                           
  1145                           ; Clear objects allocated to BANK0
  1146     0035  3020               	movlw	low __pbssBANK0
  1147     0036  0084               	movwf	4
  1148     0037  3000               	movlw	high __pbssBANK0
  1149     0038  0085               	movwf	5
  1150     0039  300D               	movlw	13
  1151     003A  3181  21BD  3180   	fcall	clear_ram0
  1152     003D                     end_of_initialization:	
  1153                           ;End of C runtime variable initialization code
  1154                           
  1155     003D                     __end_of__initialization:
  1156     003D  107E               	bcf	int$flags,0	;clear compiler interrupt flag (level 1)
  1157     003E  0140               	movlb	0
  1158     003F  28E2               	ljmp	_main	;jump to C main() function
  1159                           
  1160                           	psect	bssCOMMON
  1161     0077                     __pbssCOMMON:
  1162     0077                     _i2c1SlaveState:
  1163     0077                     	ds	1
  1164     0078                     _i2c1RdData:
  1165     0078                     	ds	1
  1166     0079                     _i2c1WrData:
  1167     0079                     	ds	1
  1168                           
  1169                           	psect	bssBANK0
  1170     0020                     __pbssBANK0:
  1171     0020                     _I2C1_SlaveWrColInterruptHandler:
  1172     0020                     	ds	2
  1173     0022                     _I2C1_SlaveBusColInterruptHandler:
  1174     0022                     	ds	2
  1175     0024                     _I2C1_SlaveAddrInterruptHandler:
  1176     0024                     	ds	2
  1177     0026                     _I2C1_SlaveWrInterruptHandler:
  1178     0026                     	ds	2
  1179     0028                     _I2C1_SlaveRdInterruptHandler:
  1180     0028                     	ds	2
  1181     002A                     _MSSP1_InterruptHandler:
  1182     002A                     	ds	2
  1183     002C                     _i2c1SlaveAddr:
  1184     002C                     	ds	1
  1185                           
  1186                           	psect	clrtext
  1187     01BD                     clear_ram0:	
  1188                           ;	Called with FSR0 containing the base address, and
  1189                           ;	WREG with the size to clear
  1190                           
  1191     01BD  0064               	clrwdt	;clear the watchdog before getting into this loop
  1192     01BE                     clrloop0:
  1193     01BE  0180               	clrf	0	;clear RAM location pointed to by FSR
  1194     01BF  3101               	addfsr 0,1
  1195     01C0  0B89               	decfsz	9,f	;Have we reached the end of clearing yet?
  1196     01C1  29BE               	goto	clrloop0	;have we reached the end yet?
  1197     01C2  3400               	retlw	0	;all done for this memory range, return
  1198                           
  1199                           	psect	cstackCOMMON
  1200     0070                     __pcstackCOMMON:
  1201     0070                     ?_I2C1_Initialize:
  1202     0070                     ?_PIN_MANAGER_Initialize:	
  1203                           ; 1 bytes @ 0x0
  1204                           
  1205     0070                     ?_OSCILLATOR_Initialize:	
  1206                           ; 1 bytes @ 0x0
  1207                           
  1208     0070                     ?_WDT_Initialize:	
  1209                           ; 1 bytes @ 0x0
  1210                           
  1211     0070                     ?_TMR0_Initialize:	
  1212                           ; 1 bytes @ 0x0
  1213                           
  1214     0070                     ?_TMR0_ISR:	
  1215                           ; 1 bytes @ 0x0
  1216                           
  1217     0070                     ??_TMR0_ISR:	
  1218                           ; 1 bytes @ 0x0
  1219                           
  1220     0070                     ?_I2C1_SlaveOpen:	
  1221                           ; 1 bytes @ 0x0
  1222                           
  1223     0070                     ?_I2C1_SlaveSetSlaveAddr:	
  1224                           ; 1 bytes @ 0x0
  1225                           
  1226     0070                     ?_I2C1_SlaveSetSlaveMask:	
  1227                           ; 1 bytes @ 0x0
  1228                           
  1229     0070                     ?_I2C1_Isr:	
  1230                           ; 1 bytes @ 0x0
  1231                           
  1232     0070                     ?_I2C1_SlaveDefWrInterruptHandler:	
  1233                           ; 1 bytes @ 0x0
  1234                           
  1235     0070                     ?_I2C1_SlaveDefRdInterruptHandler:	
  1236                           ; 1 bytes @ 0x0
  1237                           
  1238     0070                     ??_I2C1_SlaveDefRdInterruptHandler:	
  1239                           ; 1 bytes @ 0x0
  1240                           
  1241     0070                     ?_I2C1_SlaveDefAddrInterruptHandler:	
  1242                           ; 1 bytes @ 0x0
  1243                           
  1244     0070                     ??_I2C1_SlaveDefAddrInterruptHandler:	
  1245                           ; 1 bytes @ 0x0
  1246                           
  1247     0070                     ?_I2C1_SlaveEnableIrq:	
  1248                           ; 1 bytes @ 0x0
  1249                           
  1250     0070                     ?_I2C1_SlaveClose:	
  1251                           ; 1 bytes @ 0x0
  1252                           
  1253     0070                     ?_I2C1_SlaveGetRxData:	
  1254                           ; 1 bytes @ 0x0
  1255                           
  1256     0070                     ??_I2C1_SlaveGetRxData:	
  1257                           ; 1 bytes @ 0x0
  1258                           
  1259     0070                     ?_I2C1_SlaveSendTxData:	
  1260                           ; 1 bytes @ 0x0
  1261                           
  1262     0070                     ?_I2C1_SlaveIsRead:	
  1263                           ; 1 bytes @ 0x0
  1264                           
  1265     0070                     ??_I2C1_SlaveIsRead:	
  1266                           ; 1 bytes @ 0x0
  1267                           
  1268     0070                     ?_I2C1_SlaveClearIrq:	
  1269                           ; 1 bytes @ 0x0
  1270                           
  1271     0070                     ??_I2C1_SlaveClearIrq:	
  1272                           ; 1 bytes @ 0x0
  1273                           
  1274     0070                     ?_I2C1_SlaveIsAddr:	
  1275                           ; 1 bytes @ 0x0
  1276                           
  1277     0070                     ??_I2C1_SlaveIsAddr:	
  1278                           ; 1 bytes @ 0x0
  1279                           
  1280     0070                     ?_I2C1_SlaveAddrCallBack:	
  1281                           ; 1 bytes @ 0x0
  1282                           
  1283     0070                     ??_I2C1_SlaveAddrCallBack:	
  1284                           ; 1 bytes @ 0x0
  1285                           
  1286     0070                     ?_I2C1_SlaveIsTxBufEmpty:	
  1287                           ; 1 bytes @ 0x0
  1288                           
  1289     0070                     ??_I2C1_SlaveIsTxBufEmpty:	
  1290                           ; 1 bytes @ 0x0
  1291                           
  1292     0070                     ?_I2C1_SlaveWrCallBack:	
  1293                           ; 1 bytes @ 0x0
  1294                           
  1295     0070                     ?_I2C1_SlaveIsRxBufFull:	
  1296                           ; 1 bytes @ 0x0
  1297                           
  1298     0070                     ??_I2C1_SlaveIsRxBufFull:	
  1299                           ; 1 bytes @ 0x0
  1300                           
  1301     0070                     ?_I2C1_SlaveRdCallBack:	
  1302                           ; 1 bytes @ 0x0
  1303                           
  1304     0070                     ??_I2C1_SlaveRdCallBack:	
  1305                           ; 1 bytes @ 0x0
  1306                           
  1307     0070                     ?_I2C1_SlaveReleaseClock:	
  1308                           ; 1 bytes @ 0x0
  1309                           
  1310     0070                     ??_I2C1_SlaveReleaseClock:	
  1311                           ; 1 bytes @ 0x0
  1312                           
  1313     0070                     ?_TMR0_DefaultInterruptHandler:	
  1314                           ; 1 bytes @ 0x0
  1315                           
  1316     0070                     ??_TMR0_DefaultInterruptHandler:	
  1317                           ; 1 bytes @ 0x0
  1318                           
  1319     0070                     ?_SYSTEM_Initialize:	
  1320                           ; 1 bytes @ 0x0
  1321                           
  1322     0070                     ?_INTERRUPT_InterruptManager:	
  1323                           ; 1 bytes @ 0x0
  1324                           
  1325     0070                     ?_I2C1_Open:	
  1326                           ; 1 bytes @ 0x0
  1327                           
  1328     0070                     ?_I2C1_Close:	
  1329                           ; 1 bytes @ 0x0
  1330                           
  1331     0070                     ?_I2C1_Write:	
  1332                           ; 1 bytes @ 0x0
  1333                           
  1334     0070                     ?_main:	
  1335                           ; 1 bytes @ 0x0
  1336                           
  1337     0070                     ?i1_I2C1_SlaveSendTxData:	
  1338                           ; 1 bytes @ 0x0
  1339                           
  1340     0070                     ??i1_I2C1_SlaveSendTxData:	
  1341                           ; 1 bytes @ 0x0
  1342                           
  1343     0070                     i1I2C1_SlaveSendTxData@data:	
  1344                           ; 1 bytes @ 0x0
  1345                           
  1346                           
  1347                           ; 1 bytes @ 0x0
  1348     0070                     	ds	1
  1349     0071                     ??_I2C1_Isr:
  1350     0071                     ??_I2C1_SlaveDefWrInterruptHandler:	
  1351                           ; 1 bytes @ 0x1
  1352                           
  1353     0071                     ??_I2C1_SlaveWrCallBack:	
  1354                           ; 1 bytes @ 0x1
  1355                           
  1356                           
  1357                           ; 1 bytes @ 0x1
  1358     0071                     	ds	2
  1359     0073                     ??_I2C1_Initialize:
  1360     0073                     ??_PIN_MANAGER_Initialize:	
  1361                           ; 1 bytes @ 0x3
  1362                           
  1363     0073                     ??_OSCILLATOR_Initialize:	
  1364                           ; 1 bytes @ 0x3
  1365                           
  1366     0073                     ??_WDT_Initialize:	
  1367                           ; 1 bytes @ 0x3
  1368                           
  1369     0073                     ??_I2C1_SlaveOpen:	
  1370                           ; 1 bytes @ 0x3
  1371                           
  1372     0073                     ??_I2C1_SlaveSetSlaveAddr:	
  1373                           ; 1 bytes @ 0x3
  1374                           
  1375     0073                     ??_I2C1_SlaveSetSlaveMask:	
  1376                           ; 1 bytes @ 0x3
  1377                           
  1378     0073                     ?_I2C1_SlaveSetIsrHandler:	
  1379                           ; 1 bytes @ 0x3
  1380                           
  1381     0073                     ?_I2C1_SlaveSetBusColIntHandler:	
  1382                           ; 1 bytes @ 0x3
  1383                           
  1384     0073                     ?_I2C1_SlaveSetWriteIntHandler:	
  1385                           ; 1 bytes @ 0x3
  1386                           
  1387     0073                     ?_I2C1_SlaveSetReadIntHandler:	
  1388                           ; 1 bytes @ 0x3
  1389                           
  1390     0073                     ?_I2C1_SlaveSetAddrIntHandler:	
  1391                           ; 1 bytes @ 0x3
  1392                           
  1393     0073                     ?_I2C1_SlaveSetWrColIntHandler:	
  1394                           ; 1 bytes @ 0x3
  1395                           
  1396     0073                     ??_I2C1_SlaveEnableIrq:	
  1397                           ; 1 bytes @ 0x3
  1398                           
  1399     0073                     ??_I2C1_SlaveClose:	
  1400                           ; 1 bytes @ 0x3
  1401                           
  1402     0073                     ??_I2C1_SlaveSendTxData:	
  1403                           ; 1 bytes @ 0x3
  1404                           
  1405     0073                     ?_TMR0_SetInterruptHandler:	
  1406                           ; 1 bytes @ 0x3
  1407                           
  1408     0073                     ??_INTERRUPT_InterruptManager:	
  1409                           ; 1 bytes @ 0x3
  1410                           
  1411     0073                     I2C1_SlaveSetSlaveAddr@slaveAddr:	
  1412                           ; 1 bytes @ 0x3
  1413                           
  1414     0073                     I2C1_SlaveSetSlaveMask@maskAddr:	
  1415                           ; 1 bytes @ 0x3
  1416                           
  1417     0073                     I2C1_SlaveSendTxData@data:	
  1418                           ; 1 bytes @ 0x3
  1419                           
  1420     0073                     I2C1_SlaveSetIsrHandler@handler:	
  1421                           ; 1 bytes @ 0x3
  1422                           
  1423     0073                     I2C1_SlaveSetReadIntHandler@handler:	
  1424                           ; 2 bytes @ 0x3
  1425                           
  1426     0073                     I2C1_SlaveSetWriteIntHandler@handler:	
  1427                           ; 2 bytes @ 0x3
  1428                           
  1429     0073                     I2C1_SlaveSetAddrIntHandler@handler:	
  1430                           ; 2 bytes @ 0x3
  1431                           
  1432     0073                     I2C1_SlaveSetWrColIntHandler@handler:	
  1433                           ; 2 bytes @ 0x3
  1434                           
  1435     0073                     I2C1_SlaveSetBusColIntHandler@handler:	
  1436                           ; 2 bytes @ 0x3
  1437                           
  1438     0073                     TMR0_SetInterruptHandler@InterruptHandler:	
  1439                           ; 2 bytes @ 0x3
  1440                           
  1441                           
  1442                           ; 2 bytes @ 0x3
  1443     0073                     	ds	1
  1444     0074                     ??_I2C1_Close:
  1445     0074                     ??_I2C1_Write:	
  1446                           ; 1 bytes @ 0x4
  1447                           
  1448     0074                     I2C1_Write@data:	
  1449                           ; 1 bytes @ 0x4
  1450                           
  1451                           
  1452                           ; 1 bytes @ 0x4
  1453     0074                     	ds	1
  1454     0075                     ??_TMR0_Initialize:
  1455     0075                     ??_I2C1_SlaveSetIsrHandler:	
  1456                           ; 1 bytes @ 0x5
  1457                           
  1458     0075                     ??_I2C1_SlaveSetBusColIntHandler:	
  1459                           ; 1 bytes @ 0x5
  1460                           
  1461     0075                     ??_I2C1_SlaveSetWriteIntHandler:	
  1462                           ; 1 bytes @ 0x5
  1463                           
  1464     0075                     ??_I2C1_SlaveSetReadIntHandler:	
  1465                           ; 1 bytes @ 0x5
  1466                           
  1467     0075                     ??_I2C1_SlaveSetAddrIntHandler:	
  1468                           ; 1 bytes @ 0x5
  1469                           
  1470     0075                     ??_I2C1_SlaveSetWrColIntHandler:	
  1471                           ; 1 bytes @ 0x5
  1472                           
  1473     0075                     ??_TMR0_SetInterruptHandler:	
  1474                           ; 1 bytes @ 0x5
  1475                           
  1476     0075                     ??_SYSTEM_Initialize:	
  1477                           ; 1 bytes @ 0x5
  1478                           
  1479     0075                     ??_I2C1_Open:	
  1480                           ; 1 bytes @ 0x5
  1481                           
  1482     0075                     ??_main:	
  1483                           ; 1 bytes @ 0x5
  1484                           
  1485                           
  1486                           ; 1 bytes @ 0x5
  1487     0075                     	ds	2
  1488                           
  1489                           	psect	cstackBANK0
  1490     002D                     __pcstackBANK0:
  1491     002D                     main@TAG:
  1492                           
  1493                           ; 1 bytes @ 0x0
  1494     002D                     	ds	1
  1495     002E                     main@v:
  1496                           
  1497                           ; 3 bytes @ 0x1
  1498     002E                     	ds	3
  1499                           
  1500                           	psect	maintext
  1501     00E2                     __pmaintext:	
  1502 ;;
  1503 ;;Main: autosize = 0, tempsize = 2, incstack = 0, save=0
  1504 ;;
  1505 ;; *************** function _main *****************
  1506 ;; Defined at:
  1507 ;;		line 49 in file "main.c"
  1508 ;; Parameters:    Size  Location     Type
  1509 ;;		None
  1510 ;; Auto vars:     Size  Location     Type
  1511 ;;  v               3    1[BANK0 ] unsigned char [3]
  1512 ;;  TAG             1    0[BANK0 ] unsigned char 
  1513 ;; Return value:  Size  Location     Type
  1514 ;;                  1    wreg      void 
  1515 ;; Registers used:
  1516 ;;		wreg, status,2, status,0, pclath, cstack
  1517 ;; Tracked objects:
  1518 ;;		On entry : B3F/0
  1519 ;;		On exit  : 0/0
  1520 ;;		Unchanged: 0/0
  1521 ;; Data sizes:     COMMON   BANK0   BANK1   BANK2
  1522 ;;      Params:         0       0       0       0
  1523 ;;      Locals:         0       4       0       0
  1524 ;;      Temps:          2       0       0       0
  1525 ;;      Totals:         2       4       0       0
  1526 ;;Total ram usage:        6 bytes
  1527 ;; Hardware stack levels required when called: 8
  1528 ;; This function calls:
  1529 ;;		_I2C1_Close
  1530 ;;		_I2C1_Open
  1531 ;;		_I2C1_Write
  1532 ;;		_SYSTEM_Initialize
  1533 ;; This function is called by:
  1534 ;;		Startup code after reset
  1535 ;; This function uses a non-reentrant model
  1536 ;;
  1537                           
  1538     00E2                     _main:	
  1539                           ;psect for function _main
  1540                           
  1541     00E2                     l1634:	
  1542                           ;incstack = 0
  1543                           ; Regs used in _main: [wreg+status,2+status,0+pclath+cstack]
  1544                           
  1545                           
  1546                           ;main.c: 52:     SYSTEM_Initialize();
  1547     00E2  3181  2147  3180   	fcall	_SYSTEM_Initialize
  1548     00E5                     l1636:
  1549     00E5                     l1638:
  1550                           
  1551                           ;main.c: 77:         v[0] = PORTC & 0x3C;
  1552     00E5  0140               	movlb	0	; select bank0
  1553     00E6  080E               	movf	14,w	;volatile
  1554     00E7  393C               	andlw	60
  1555     00E8  00AE               	movwf	main@v
  1556     00E9                     l1640:
  1557                           
  1558                           ;main.c: 78:         v[1] = PORTA & 0x30;
  1559     00E9  080C               	movf	12,w	;volatile
  1560     00EA  3930               	andlw	48
  1561     00EB  00AF               	movwf	main@v+1
  1562     00EC                     l1642:
  1563                           
  1564                           ;main.c: 80:         v[2] = v[0]>>2;
  1565     00EC  082E               	movf	main@v,w
  1566     00ED  00F5               	movwf	??_main
  1567     00EE  3002               	movlw	2
  1568     00EF                     u435:
  1569     00EF  36F5               	lsrf	??_main,f
  1570     00F0  0B89               	decfsz	9,f
  1571     00F1  28EF               	goto	u435
  1572     00F2  0875               	movf	??_main,w
  1573     00F3  00B0               	movwf	main@v+2
  1574     00F4                     l1644:
  1575                           
  1576                           ;main.c: 82:         TAG = v[2] | v[1];
  1577     00F4  0830               	movf	main@v+2,w
  1578     00F5  042F               	iorwf	main@v+1,w
  1579     00F6  00AD               	movwf	main@TAG
  1580     00F7                     l1646:
  1581     00F7  1518               	bsf	24,2	;volatile
  1582     00F8                     l1648:
  1583                           
  1584                           ;main.c: 86:         I2C1_Open();
  1585     00F8  3180  20A9  3180   	fcall	_I2C1_Open
  1586     00FB                     l1650:
  1587                           
  1588                           ;main.c: 87:         I2C1_Write(TAG);
  1589     00FB  0140               	movlb	0	; select bank0
  1590     00FC  082D               	movf	main@TAG,w
  1591     00FD  3181  21CF  3180   	fcall	_I2C1_Write
  1592     0100                     l1652:
  1593                           
  1594                           ;main.c: 88:         I2C1_Close();
  1595     0100  3182  2222  3180   	fcall	_I2C1_Close
  1596     0103                     l1654:
  1597                           
  1598                           ;main.c: 89:         _delay((unsigned long)((1000)*(8000000/4000.0)));
  1599     0103  300B               	movlw	11
  1600     0104  00F6               	movwf	??_main+1
  1601     0105  3026               	movlw	38
  1602     0106  00F5               	movwf	??_main
  1603     0107  305E               	movlw	94
  1604     0108                     u447:
  1605     0108  0B89               	decfsz	9,f
  1606     0109  2908               	goto	u447
  1607     010A  0BF5               	decfsz	??_main,f
  1608     010B  2908               	goto	u447
  1609     010C  0BF6               	decfsz	??_main+1,f
  1610     010D  2908               	goto	u447
  1611     010E  28E5               	goto	l1636
  1612     010F  2831               	ljmp	start
  1613     0110                     __end_of_main:
  1614                           
  1615                           	psect	text1
  1616     0147                     __ptext1:	
  1617 ;; *************** function _SYSTEM_Initialize *****************
  1618 ;; Defined at:
  1619 ;;		line 50 in file "mcc_generated_files/mcc.c"
  1620 ;; Parameters:    Size  Location     Type
  1621 ;;		None
  1622 ;; Auto vars:     Size  Location     Type
  1623 ;;		None
  1624 ;; Return value:  Size  Location     Type
  1625 ;;                  1    wreg      void 
  1626 ;; Registers used:
  1627 ;;		wreg, status,2, status,0, pclath, cstack
  1628 ;; Tracked objects:
  1629 ;;		On entry : 0/0
  1630 ;;		On exit  : 0/0
  1631 ;;		Unchanged: 0/0
  1632 ;; Data sizes:     COMMON   BANK0   BANK1   BANK2
  1633 ;;      Params:         0       0       0       0
  1634 ;;      Locals:         0       0       0       0
  1635 ;;      Temps:          0       0       0       0
  1636 ;;      Totals:         0       0       0       0
  1637 ;;Total ram usage:        0 bytes
  1638 ;; Hardware stack levels used: 1
  1639 ;; Hardware stack levels required when called: 7
  1640 ;; This function calls:
  1641 ;;		_I2C1_Initialize
  1642 ;;		_OSCILLATOR_Initialize
  1643 ;;		_PIN_MANAGER_Initialize
  1644 ;;		_TMR0_Initialize
  1645 ;;		_WDT_Initialize
  1646 ;; This function is called by:
  1647 ;;		_main
  1648 ;; This function uses a non-reentrant model
  1649 ;;
  1650                           
  1651     0147                     _SYSTEM_Initialize:	
  1652                           ;psect for function _SYSTEM_Initialize
  1653                           
  1654     0147                     l1618:	
  1655                           ;incstack = 0
  1656                           ; Regs used in _SYSTEM_Initialize: [wreg+status,2+status,0+pclath+cstack]
  1657                           
  1658                           
  1659                           ;mcc_generated_files/mcc.c: 53:     I2C1_Initialize();
  1660     0147  3181  219B  3181   	fcall	_I2C1_Initialize
  1661                           
  1662                           ;mcc_generated_files/mcc.c: 54:     PIN_MANAGER_Initialize();
  1663     014A  3181  2110  3181   	fcall	_PIN_MANAGER_Initialize
  1664                           
  1665                           ;mcc_generated_files/mcc.c: 55:     OSCILLATOR_Initialize();
  1666     014D  3181  21C9  3181   	fcall	_OSCILLATOR_Initialize
  1667     0150                     l1620:
  1668                           
  1669                           ;mcc_generated_files/mcc.c: 56:     WDT_Initialize();
  1670     0150  3182  222A  3181   	fcall	_WDT_Initialize
  1671     0153                     l1622:
  1672                           
  1673                           ;mcc_generated_files/mcc.c: 57:     TMR0_Initialize();
  1674     0153  3181  2133  3181   	fcall	_TMR0_Initialize
  1675     0156                     l33:
  1676     0156  0008               	return
  1677     0157                     __end_of_SYSTEM_Initialize:
  1678                           
  1679                           	psect	text2
  1680     022A                     __ptext2:	
  1681 ;; *************** function _WDT_Initialize *****************
  1682 ;; Defined at:
  1683 ;;		line 70 in file "mcc_generated_files/mcc.c"
  1684 ;; Parameters:    Size  Location     Type
  1685 ;;		None
  1686 ;; Auto vars:     Size  Location     Type
  1687 ;;		None
  1688 ;; Return value:  Size  Location     Type
  1689 ;;                  1    wreg      void 
  1690 ;; Registers used:
  1691 ;;		status,2
  1692 ;; Tracked objects:
  1693 ;;		On entry : 0/0
  1694 ;;		On exit  : 0/0
  1695 ;;		Unchanged: 0/0
  1696 ;; Data sizes:     COMMON   BANK0   BANK1   BANK2
  1697 ;;      Params:         0       0       0       0
  1698 ;;      Locals:         0       0       0       0
  1699 ;;      Temps:          0       0       0       0
  1700 ;;      Totals:         0       0       0       0
  1701 ;;Total ram usage:        0 bytes
  1702 ;; Hardware stack levels used: 1
  1703 ;; Hardware stack levels required when called: 5
  1704 ;; This function calls:
  1705 ;;		Nothing
  1706 ;; This function is called by:
  1707 ;;		_SYSTEM_Initialize
  1708 ;; This function uses a non-reentrant model
  1709 ;;
  1710                           
  1711     022A                     _WDT_Initialize:	
  1712                           ;psect for function _WDT_Initialize
  1713                           
  1714     022A                     l1564:	
  1715                           ;incstack = 0
  1716                           ; Regs used in _WDT_Initialize: [status,2]
  1717                           
  1718                           
  1719                           ;mcc_generated_files/mcc.c: 73:     WDTCON = 0x00;
  1720     022A  0150               	movlb	16	; select bank16
  1721     022B  018C               	clrf	12	;volatile
  1722     022C                     l39:
  1723     022C  0008               	return
  1724     022D                     __end_of_WDT_Initialize:
  1725                           
  1726                           	psect	text3
  1727     0133                     __ptext3:	
  1728 ;; *************** function _TMR0_Initialize *****************
  1729 ;; Defined at:
  1730 ;;		line 61 in file "mcc_generated_files/tmr0.c"
  1731 ;; Parameters:    Size  Location     Type
  1732 ;;		None
  1733 ;; Auto vars:     Size  Location     Type
  1734 ;;		None
  1735 ;; Return value:  Size  Location     Type
  1736 ;;                  1    wreg      void 
  1737 ;; Registers used:
  1738 ;;		wreg, status,2, status,0, pclath, cstack
  1739 ;; Tracked objects:
  1740 ;;		On entry : 0/0
  1741 ;;		On exit  : 0/0
  1742 ;;		Unchanged: 0/0
  1743 ;; Data sizes:     COMMON   BANK0   BANK1   BANK2
  1744 ;;      Params:         0       0       0       0
  1745 ;;      Locals:         0       0       0       0
  1746 ;;      Temps:          0       0       0       0
  1747 ;;      Totals:         0       0       0       0
  1748 ;;Total ram usage:        0 bytes
  1749 ;; Hardware stack levels used: 1
  1750 ;; Hardware stack levels required when called: 6
  1751 ;; This function calls:
  1752 ;;		_TMR0_SetInterruptHandler
  1753 ;; This function is called by:
  1754 ;;		_SYSTEM_Initialize
  1755 ;; This function uses a non-reentrant model
  1756 ;;
  1757                           
  1758     0133                     _TMR0_Initialize:	
  1759                           ;psect for function _TMR0_Initialize
  1760                           
  1761     0133                     l1566:	
  1762                           ;incstack = 0
  1763                           ; Regs used in _TMR0_Initialize: [wreg+status,2+status,0+pclath+cstack]
  1764                           
  1765                           
  1766                           ;mcc_generated_files/tmr0.c: 66:     T0CON1 = 0x69;
  1767     0133  3069               	movlw	105
  1768     0134  014B               	movlb	11	; select bank11
  1769     0135  009F               	movwf	31	;volatile
  1770                           
  1771                           ;mcc_generated_files/tmr0.c: 69:     TMR0H = 0x9B;
  1772     0136  309B               	movlw	155
  1773     0137  009D               	movwf	29	;volatile
  1774     0138                     l1568:
  1775                           
  1776                           ;mcc_generated_files/tmr0.c: 72:     TMR0L = 0x00;
  1777     0138  019C               	clrf	28	;volatile
  1778     0139                     l1570:
  1779                           
  1780                           ;mcc_generated_files/tmr0.c: 75:     PIR0bits.TMR0IF = 0;
  1781     0139  014E               	movlb	14	; select bank14
  1782     013A  128C               	bcf	12,5	;volatile
  1783     013B                     l1572:
  1784                           
  1785                           ;mcc_generated_files/tmr0.c: 78:     PIE0bits.TMR0IE = 1;
  1786     013B  1696               	bsf	22,5	;volatile
  1787     013C                     l1574:
  1788                           
  1789                           ;mcc_generated_files/tmr0.c: 81:     TMR0_SetInterruptHandler(TMR0_DefaultInterruptHandl
      +                          er);
  1790     013C  3039               	movlw	low _TMR0_DefaultInterruptHandler
  1791     013D  00F3               	movwf	TMR0_SetInterruptHandler@InterruptHandler
  1792     013E  3002               	movlw	high _TMR0_DefaultInterruptHandler
  1793     013F  00F4               	movwf	TMR0_SetInterruptHandler@InterruptHandler+1
  1794     0140  3181  21C3  3181   	fcall	_TMR0_SetInterruptHandler
  1795     0143                     l1576:
  1796                           
  1797                           ;mcc_generated_files/tmr0.c: 84:     T0CON0 = 0x80;
  1798     0143  3080               	movlw	128
  1799     0144  014B               	movlb	11	; select bank11
  1800     0145  009E               	movwf	30	;volatile
  1801     0146                     l403:
  1802     0146  0008               	return
  1803     0147                     __end_of_TMR0_Initialize:
  1804                           
  1805                           	psect	text4
  1806     01C3                     __ptext4:	
  1807 ;; *************** function _TMR0_SetInterruptHandler *****************
  1808 ;; Defined at:
  1809 ;;		line 134 in file "mcc_generated_files/tmr0.c"
  1810 ;; Parameters:    Size  Location     Type
  1811 ;;  InterruptHan    2    3[COMMON] PTR FTN()void 
  1812 ;;		 -> TMR0_DefaultInterruptHandler(1), 
  1813 ;; Auto vars:     Size  Location     Type
  1814 ;;		None
  1815 ;; Return value:  Size  Location     Type
  1816 ;;                  1    wreg      void 
  1817 ;; Registers used:
  1818 ;;		wreg
  1819 ;; Tracked objects:
  1820 ;;		On entry : 0/0
  1821 ;;		On exit  : 0/0
  1822 ;;		Unchanged: 0/0
  1823 ;; Data sizes:     COMMON   BANK0   BANK1   BANK2
  1824 ;;      Params:         2       0       0       0
  1825 ;;      Locals:         0       0       0       0
  1826 ;;      Temps:          0       0       0       0
  1827 ;;      Totals:         2       0       0       0
  1828 ;;Total ram usage:        2 bytes
  1829 ;; Hardware stack levels used: 1
  1830 ;; Hardware stack levels required when called: 5
  1831 ;; This function calls:
  1832 ;;		Nothing
  1833 ;; This function is called by:
  1834 ;;		_TMR0_Initialize
  1835 ;; This function uses a non-reentrant model
  1836 ;;
  1837                           
  1838     01C3                     _TMR0_SetInterruptHandler:	
  1839                           ;psect for function _TMR0_SetInterruptHandler
  1840                           
  1841     01C3                     l1516:	
  1842                           ;incstack = 0
  1843                           ; Regs used in _TMR0_SetInterruptHandler: [wreg]
  1844                           
  1845                           
  1846                           ;mcc_generated_files/tmr0.c: 135:     TMR0_InterruptHandler = InterruptHandler;
  1847     01C3  0874               	movf	TMR0_SetInterruptHandler@InterruptHandler+1,w
  1848     01C4  0140               	movlb	0	; select bank0
  1849     01C5  00B2               	movwf	_TMR0_InterruptHandler+1
  1850     01C6  0873               	movf	TMR0_SetInterruptHandler@InterruptHandler,w
  1851     01C7  00B1               	movwf	_TMR0_InterruptHandler
  1852     01C8                     l425:
  1853     01C8  0008               	return
  1854     01C9                     __end_of_TMR0_SetInterruptHandler:
  1855                           
  1856                           	psect	text5
  1857     0110                     __ptext5:	
  1858 ;; *************** function _PIN_MANAGER_Initialize *****************
  1859 ;; Defined at:
  1860 ;;		line 55 in file "mcc_generated_files/pin_manager.c"
  1861 ;; Parameters:    Size  Location     Type
  1862 ;;		None
  1863 ;; Auto vars:     Size  Location     Type
  1864 ;;		None
  1865 ;; Return value:  Size  Location     Type
  1866 ;;                  1    wreg      void 
  1867 ;; Registers used:
  1868 ;;		wreg, status,2
  1869 ;; Tracked objects:
  1870 ;;		On entry : 0/0
  1871 ;;		On exit  : 0/0
  1872 ;;		Unchanged: 0/0
  1873 ;; Data sizes:     COMMON   BANK0   BANK1   BANK2
  1874 ;;      Params:         0       0       0       0
  1875 ;;      Locals:         0       0       0       0
  1876 ;;      Temps:          0       0       0       0
  1877 ;;      Totals:         0       0       0       0
  1878 ;;Total ram usage:        0 bytes
  1879 ;; Hardware stack levels used: 1
  1880 ;; Hardware stack levels required when called: 5
  1881 ;; This function calls:
  1882 ;;		Nothing
  1883 ;; This function is called by:
  1884 ;;		_SYSTEM_Initialize
  1885 ;; This function uses a non-reentrant model
  1886 ;;
  1887                           
  1888     0110                     _PIN_MANAGER_Initialize:	
  1889                           ;psect for function _PIN_MANAGER_Initialize
  1890                           
  1891     0110                     l1526:	
  1892                           ;incstack = 0
  1893                           ; Regs used in _PIN_MANAGER_Initialize: [wreg+status,2]
  1894                           
  1895                           
  1896                           ;mcc_generated_files/pin_manager.c: 60:     LATA = 0x00;
  1897     0110  0140               	movlb	0	; select bank0
  1898     0111  0198               	clrf	24	;volatile
  1899                           
  1900                           ;mcc_generated_files/pin_manager.c: 61:     LATC = 0x00;
  1901     0112  019A               	clrf	26	;volatile
  1902     0113                     l1528:
  1903                           
  1904                           ;mcc_generated_files/pin_manager.c: 66:     TRISA = 0x3B;
  1905     0113  303B               	movlw	59
  1906     0114  0092               	movwf	18	;volatile
  1907     0115                     l1530:
  1908                           
  1909                           ;mcc_generated_files/pin_manager.c: 67:     TRISC = 0x3F;
  1910     0115  303F               	movlw	63
  1911     0116  0094               	movwf	20	;volatile
  1912                           
  1913                           ;mcc_generated_files/pin_manager.c: 72:     ANSELC = 0x00;
  1914     0117  017E               	movlb	62	; select bank62
  1915     0118  01CE               	clrf	78	;volatile
  1916     0119                     l1532:
  1917                           
  1918                           ;mcc_generated_files/pin_manager.c: 73:     ANSELA = 0x07;
  1919     0119  3007               	movlw	7
  1920     011A  00B8               	movwf	56	;volatile
  1921     011B                     l1534:
  1922                           
  1923                           ;mcc_generated_files/pin_manager.c: 78:     WPUA = 0x00;
  1924     011B  01B9               	clrf	57	;volatile
  1925     011C                     l1536:
  1926                           
  1927                           ;mcc_generated_files/pin_manager.c: 79:     WPUC = 0x00;
  1928     011C  01CF               	clrf	79	;volatile
  1929     011D                     l1538:
  1930                           
  1931                           ;mcc_generated_files/pin_manager.c: 84:     ODCONA = 0x00;
  1932     011D  01BA               	clrf	58	;volatile
  1933     011E                     l1540:
  1934                           
  1935                           ;mcc_generated_files/pin_manager.c: 85:     ODCONC = 0x00;
  1936     011E  01D0               	clrf	80	;volatile
  1937     011F                     l1542:
  1938                           
  1939                           ;mcc_generated_files/pin_manager.c: 90:     SLRCONA = 0x37;
  1940     011F  3037               	movlw	55
  1941     0120  00BB               	movwf	59	;volatile
  1942     0121                     l1544:
  1943                           
  1944                           ;mcc_generated_files/pin_manager.c: 91:     SLRCONC = 0x3F;
  1945     0121  303F               	movlw	63
  1946     0122  00D1               	movwf	81	;volatile
  1947     0123                     l1546:
  1948                           
  1949                           ;mcc_generated_files/pin_manager.c: 96:     INLVLA = 0x3F;
  1950     0123  303F               	movlw	63
  1951     0124  00BC               	movwf	60	;volatile
  1952     0125                     l1548:
  1953                           
  1954                           ;mcc_generated_files/pin_manager.c: 97:     INLVLC = 0x3F;
  1955     0125  303F               	movlw	63
  1956     0126  00D2               	movwf	82	;volatile
  1957     0127                     l1550:
  1958                           
  1959                           ;mcc_generated_files/pin_manager.c: 106:     RC0PPS = 0x07;
  1960     0127  3007               	movlw	7
  1961     0128  00A0               	movwf	32	;volatile
  1962     0129                     l1552:
  1963                           
  1964                           ;mcc_generated_files/pin_manager.c: 107:     SSP1CLKPPS = 0x10;
  1965     0129  3010               	movlw	16
  1966     012A  017D               	movlb	61	; select bank61
  1967     012B  00C5               	movwf	69	;volatile
  1968     012C                     l1554:
  1969                           
  1970                           ;mcc_generated_files/pin_manager.c: 108:     RC1PPS = 0x08;
  1971     012C  3008               	movlw	8
  1972     012D  017E               	movlb	62	; select bank62
  1973     012E  00A1               	movwf	33	;volatile
  1974     012F                     l1556:
  1975                           
  1976                           ;mcc_generated_files/pin_manager.c: 109:     SSP1DATPPS = 0x11;
  1977     012F  3011               	movlw	17
  1978     0130  017D               	movlb	61	; select bank61
  1979     0131  00C6               	movwf	70	;volatile
  1980     0132                     l78:
  1981     0132  0008               	return
  1982     0133                     __end_of_PIN_MANAGER_Initialize:
  1983                           
  1984                           	psect	text6
  1985     01C9                     __ptext6:	
  1986 ;; *************** function _OSCILLATOR_Initialize *****************
  1987 ;; Defined at:
  1988 ;;		line 60 in file "mcc_generated_files/mcc.c"
  1989 ;; Parameters:    Size  Location     Type
  1990 ;;		None
  1991 ;; Auto vars:     Size  Location     Type
  1992 ;;		None
  1993 ;; Return value:  Size  Location     Type
  1994 ;;                  1    wreg      void 
  1995 ;; Registers used:
  1996 ;;		wreg, status,2
  1997 ;; Tracked objects:
  1998 ;;		On entry : 0/0
  1999 ;;		On exit  : 0/0
  2000 ;;		Unchanged: 0/0
  2001 ;; Data sizes:     COMMON   BANK0   BANK1   BANK2
  2002 ;;      Params:         0       0       0       0
  2003 ;;      Locals:         0       0       0       0
  2004 ;;      Temps:          0       0       0       0
  2005 ;;      Totals:         0       0       0       0
  2006 ;;Total ram usage:        0 bytes
  2007 ;; Hardware stack levels used: 1
  2008 ;; Hardware stack levels required when called: 5
  2009 ;; This function calls:
  2010 ;;		Nothing
  2011 ;; This function is called by:
  2012 ;;		_SYSTEM_Initialize
  2013 ;; This function uses a non-reentrant model
  2014 ;;
  2015                           
  2016     01C9                     _OSCILLATOR_Initialize:	
  2017                           ;psect for function _OSCILLATOR_Initialize
  2018                           
  2019     01C9                     l1558:	
  2020                           ;incstack = 0
  2021                           ; Regs used in _OSCILLATOR_Initialize: [wreg+status,2]
  2022                           
  2023                           
  2024                           ;mcc_generated_files/mcc.c: 63:     OSCEN = 0x00;
  2025     01C9  0151               	movlb	17	; select bank17
  2026     01CA  0191               	clrf	17	;volatile
  2027     01CB                     l1560:
  2028                           
  2029                           ;mcc_generated_files/mcc.c: 65:     OSCFRQ = 0x03;
  2030     01CB  3003               	movlw	3
  2031     01CC  0093               	movwf	19	;volatile
  2032     01CD                     l1562:
  2033                           
  2034                           ;mcc_generated_files/mcc.c: 67:     OSCTUNE = 0x00;
  2035     01CD  0192               	clrf	18	;volatile
  2036     01CE                     l36:
  2037     01CE  0008               	return
  2038     01CF                     __end_of_OSCILLATOR_Initialize:
  2039                           
  2040                           	psect	text7
  2041     019B                     __ptext7:	
  2042 ;; *************** function _I2C1_Initialize *****************
  2043 ;; Defined at:
  2044 ;;		line 108 in file "mcc_generated_files/i2c1_slave.c"
  2045 ;; Parameters:    Size  Location     Type
  2046 ;;		None
  2047 ;; Auto vars:     Size  Location     Type
  2048 ;;		None
  2049 ;; Return value:  Size  Location     Type
  2050 ;;                  1    wreg      void 
  2051 ;; Registers used:
  2052 ;;		wreg, status,2, status,0
  2053 ;; Tracked objects:
  2054 ;;		On entry : 0/0
  2055 ;;		On exit  : 0/0
  2056 ;;		Unchanged: 0/0
  2057 ;; Data sizes:     COMMON   BANK0   BANK1   BANK2
  2058 ;;      Params:         0       0       0       0
  2059 ;;      Locals:         0       0       0       0
  2060 ;;      Temps:          1       0       0       0
  2061 ;;      Totals:         1       0       0       0
  2062 ;;Total ram usage:        1 bytes
  2063 ;; Hardware stack levels used: 1
  2064 ;; Hardware stack levels required when called: 5
  2065 ;; This function calls:
  2066 ;;		Nothing
  2067 ;; This function is called by:
  2068 ;;		_SYSTEM_Initialize
  2069 ;;		_I2C1_Enable
  2070 ;; This function uses a non-reentrant model
  2071 ;;
  2072                           
  2073     019B                     _I2C1_Initialize:	
  2074                           ;psect for function _I2C1_Initialize
  2075                           
  2076     019B                     l1518:	
  2077                           ;incstack = 0
  2078                           ; Regs used in _I2C1_Initialize: [wreg+status,2+status,0]
  2079                           
  2080                           
  2081                           ;mcc_generated_files/i2c1_slave.c: 110:     SSP1STAT = 0x40;
  2082     019B  3040               	movlw	64
  2083     019C  0143               	movlb	3	; select bank3
  2084     019D  008F               	movwf	15	;volatile
  2085     019E                     l1520:
  2086                           
  2087                           ;mcc_generated_files/i2c1_slave.c: 111:     SSP1CON1 |= 0x06;
  2088     019E  3006               	movlw	6
  2089     019F  00F3               	movwf	??_I2C1_Initialize
  2090     01A0  0873               	movf	??_I2C1_Initialize,w
  2091     01A1  0490               	iorwf	16,f	;volatile
  2092     01A2                     l1522:
  2093                           
  2094                           ;mcc_generated_files/i2c1_slave.c: 112:     SSP1CON2 = 0x00;
  2095     01A2  0191               	clrf	17	;volatile
  2096     01A3                     l1524:
  2097                           
  2098                           ;mcc_generated_files/i2c1_slave.c: 113:     SSP1CON1bits.SSPEN = 0;
  2099     01A3  1290               	bcf	16,5	;volatile
  2100     01A4                     l223:
  2101     01A4  0008               	return
  2102     01A5                     __end_of_I2C1_Initialize:
  2103                           
  2104                           	psect	text8
  2105     01CF                     __ptext8:	
  2106 ;; *************** function _I2C1_Write *****************
  2107 ;; Defined at:
  2108 ;;		line 140 in file "mcc_generated_files/i2c1_slave.c"
  2109 ;; Parameters:    Size  Location     Type
  2110 ;;  data            1    wreg     unsigned char 
  2111 ;; Auto vars:     Size  Location     Type
  2112 ;;  data            1    4[COMMON] unsigned char 
  2113 ;; Return value:  Size  Location     Type
  2114 ;;                  1    wreg      void 
  2115 ;; Registers used:
  2116 ;;		wreg, status,2, status,0, pclath, cstack
  2117 ;; Tracked objects:
  2118 ;;		On entry : 0/0
  2119 ;;		On exit  : 0/0
  2120 ;;		Unchanged: 0/0
  2121 ;; Data sizes:     COMMON   BANK0   BANK1   BANK2
  2122 ;;      Params:         0       0       0       0
  2123 ;;      Locals:         1       0       0       0
  2124 ;;      Temps:          0       0       0       0
  2125 ;;      Totals:         1       0       0       0
  2126 ;;Total ram usage:        1 bytes
  2127 ;; Hardware stack levels used: 1
  2128 ;; Hardware stack levels required when called: 6
  2129 ;; This function calls:
  2130 ;;		_I2C1_SlaveSendTxData
  2131 ;; This function is called by:
  2132 ;;		_main
  2133 ;; This function uses a non-reentrant model
  2134 ;;
  2135                           
  2136     01CF                     _I2C1_Write:	
  2137                           ;psect for function _I2C1_Write
  2138                           
  2139                           
  2140                           ;incstack = 0
  2141                           ; Regs used in _I2C1_Write: [wreg+status,2+status,0+pclath+cstack]
  2142                           ;I2C1_Write@data stored from wreg
  2143     01CF  00F4               	movwf	I2C1_Write@data
  2144     01D0                     l1630:
  2145                           
  2146                           ;mcc_generated_files/i2c1_slave.c: 140: void I2C1_Write(uint8_t data);mcc_generated_file
      +                          s/i2c1_slave.c: 141: {;mcc_generated_files/i2c1_slave.c: 142:     I2C1_SlaveSendTxData(d
      +                          ata);
  2147     01D0  0874               	movf	I2C1_Write@data,w
  2148     01D1  3181  21FF  3181   	fcall	_I2C1_SlaveSendTxData
  2149     01D4                     l235:
  2150     01D4  0008               	return
  2151     01D5                     __end_of_I2C1_Write:
  2152                           
  2153                           	psect	text9
  2154     01FF                     __ptext9:	
  2155 ;; *************** function _I2C1_SlaveSendTxData *****************
  2156 ;; Defined at:
  2157 ;;		line 391 in file "mcc_generated_files/i2c1_slave.c"
  2158 ;; Parameters:    Size  Location     Type
  2159 ;;  data            1    wreg     unsigned char 
  2160 ;; Auto vars:     Size  Location     Type
  2161 ;;  data            1    3[COMMON] unsigned char 
  2162 ;; Return value:  Size  Location     Type
  2163 ;;                  1    wreg      void 
  2164 ;; Registers used:
  2165 ;;		wreg
  2166 ;; Tracked objects:
  2167 ;;		On entry : 0/0
  2168 ;;		On exit  : 0/0
  2169 ;;		Unchanged: 0/0
  2170 ;; Data sizes:     COMMON   BANK0   BANK1   BANK2
  2171 ;;      Params:         0       0       0       0
  2172 ;;      Locals:         1       0       0       0
  2173 ;;      Temps:          0       0       0       0
  2174 ;;      Totals:         1       0       0       0
  2175 ;;Total ram usage:        1 bytes
  2176 ;; Hardware stack levels used: 1
  2177 ;; Hardware stack levels required when called: 5
  2178 ;; This function calls:
  2179 ;;		Nothing
  2180 ;; This function is called by:
  2181 ;;		_I2C1_Write
  2182 ;; This function uses a non-reentrant model
  2183 ;;
  2184                           
  2185     01FF                     _I2C1_SlaveSendTxData:	
  2186                           ;psect for function _I2C1_SlaveSendTxData
  2187                           
  2188                           
  2189                           ;incstack = 0
  2190                           ; Regs used in _I2C1_SlaveSendTxData: [wreg]
  2191                           ;I2C1_SlaveSendTxData@data stored from wreg
  2192     01FF  00F3               	movwf	I2C1_SlaveSendTxData@data
  2193     0200                     l1616:
  2194                           
  2195                           ;mcc_generated_files/i2c1_slave.c: 391: static __attribute__((inline)) void I2C1_SlaveSe
      +                          ndTxData(uint8_t data);mcc_generated_files/i2c1_slave.c: 392: {;mcc_generated_files/i2c1
      +                          _slave.c: 393:     SSP1BUF = data;
  2196     0200  0873               	movf	I2C1_SlaveSendTxData@data,w
  2197     0201  0143               	movlb	3	; select bank3
  2198     0202  008C               	movwf	12	;volatile
  2199     0203                     l365:
  2200     0203  0008               	return
  2201     0204                     __end_of_I2C1_SlaveSendTxData:
  2202                           
  2203                           	psect	text10
  2204     00A9                     __ptext10:	
  2205 ;; *************** function _I2C1_Open *****************
  2206 ;; Defined at:
  2207 ;;		line 116 in file "mcc_generated_files/i2c1_slave.c"
  2208 ;; Parameters:    Size  Location     Type
  2209 ;;		None
  2210 ;; Auto vars:     Size  Location     Type
  2211 ;;		None
  2212 ;; Return value:  Size  Location     Type
  2213 ;;                  1    wreg      void 
  2214 ;; Registers used:
  2215 ;;		wreg, status,2, status,0, pclath, cstack
  2216 ;; Tracked objects:
  2217 ;;		On entry : 0/0
  2218 ;;		On exit  : 0/0
  2219 ;;		Unchanged: 0/0
  2220 ;; Data sizes:     COMMON   BANK0   BANK1   BANK2
  2221 ;;      Params:         0       0       0       0
  2222 ;;      Locals:         0       0       0       0
  2223 ;;      Temps:          0       0       0       0
  2224 ;;      Totals:         0       0       0       0
  2225 ;;Total ram usage:        0 bytes
  2226 ;; Hardware stack levels used: 1
  2227 ;; Hardware stack levels required when called: 6
  2228 ;; This function calls:
  2229 ;;		_I2C1_SlaveEnableIrq
  2230 ;;		_I2C1_SlaveOpen
  2231 ;;		_I2C1_SlaveSetAddrIntHandler
  2232 ;;		_I2C1_SlaveSetBusColIntHandler
  2233 ;;		_I2C1_SlaveSetIsrHandler
  2234 ;;		_I2C1_SlaveSetReadIntHandler
  2235 ;;		_I2C1_SlaveSetSlaveAddr
  2236 ;;		_I2C1_SlaveSetSlaveMask
  2237 ;;		_I2C1_SlaveSetWrColIntHandler
  2238 ;;		_I2C1_SlaveSetWriteIntHandler
  2239 ;; This function is called by:
  2240 ;;		_main
  2241 ;; This function uses a non-reentrant model
  2242 ;;
  2243                           
  2244     00A9                     _I2C1_Open:	
  2245                           ;psect for function _I2C1_Open
  2246                           
  2247     00A9                     l1624:	
  2248                           ;incstack = 0
  2249                           ; Regs used in _I2C1_Open: [wreg+status,2+status,0+pclath+cstack]
  2250                           
  2251                           
  2252                           ;mcc_generated_files/i2c1_slave.c: 118:     I2C1_SlaveOpen();
  2253     00A9  3181  2166  3180   	fcall	_I2C1_SlaveOpen
  2254                           
  2255                           ;mcc_generated_files/i2c1_slave.c: 119:     I2C1_SlaveSetSlaveAddr(7);
  2256     00AC  3007               	movlw	7
  2257     00AD  3182  2209  3180   	fcall	_I2C1_SlaveSetSlaveAddr
  2258                           
  2259                           ;mcc_generated_files/i2c1_slave.c: 120:     I2C1_SlaveSetSlaveMask(0);
  2260     00B0  3000               	movlw	0
  2261     00B1  3182  2204  3180   	fcall	_I2C1_SlaveSetSlaveMask
  2262                           
  2263                           ;mcc_generated_files/i2c1_slave.c: 121:     I2C1_SlaveSetIsrHandler(I2C1_Isr);
  2264     00B4  3040               	movlw	low _I2C1_Isr
  2265     00B5  00F3               	movwf	I2C1_SlaveSetIsrHandler@handler
  2266     00B6  3000               	movlw	high _I2C1_Isr
  2267     00B7  00F4               	movwf	I2C1_SlaveSetIsrHandler@handler+1
  2268     00B8  3181  21E7  3180   	fcall	_I2C1_SlaveSetIsrHandler
  2269                           
  2270                           ;mcc_generated_files/i2c1_slave.c: 122:     I2C1_SlaveSetBusColIntHandler(I2C1_SlaveDefB
      +                          usColInterruptHandler);
  2271     00BB  3000               	movlw	0
  2272     00BC  00F3               	movwf	I2C1_SlaveSetBusColIntHandler@handler
  2273     00BD  3000               	movlw	0
  2274     00BE  00F4               	movwf	I2C1_SlaveSetBusColIntHandler@handler+1
  2275     00BF  3181  21ED  3180   	fcall	_I2C1_SlaveSetBusColIntHandler
  2276                           
  2277                           ;mcc_generated_files/i2c1_slave.c: 123:     I2C1_SlaveSetWriteIntHandler(I2C1_SlaveDefWr
      +                          InterruptHandler);
  2278     00C2  300E               	movlw	low _I2C1_SlaveDefWrInterruptHandler
  2279     00C3  00F3               	movwf	I2C1_SlaveSetWriteIntHandler@handler
  2280     00C4  3002               	movlw	high _I2C1_SlaveDefWrInterruptHandler
  2281     00C5  00F4               	movwf	I2C1_SlaveSetWriteIntHandler@handler+1
  2282     00C6  3181  21D5  3180   	fcall	_I2C1_SlaveSetWriteIntHandler
  2283                           
  2284                           ;mcc_generated_files/i2c1_slave.c: 124:     I2C1_SlaveSetReadIntHandler(I2C1_SlaveDefRdI
      +                          nterruptHandler);
  2285     00C9  3018               	movlw	low _I2C1_SlaveDefRdInterruptHandler
  2286     00CA  00F3               	movwf	I2C1_SlaveSetReadIntHandler@handler
  2287     00CB  3002               	movlw	high _I2C1_SlaveDefRdInterruptHandler
  2288     00CC  00F4               	movwf	I2C1_SlaveSetReadIntHandler@handler+1
  2289     00CD  3181  21E1  3180   	fcall	_I2C1_SlaveSetReadIntHandler
  2290                           
  2291                           ;mcc_generated_files/i2c1_slave.c: 125:     I2C1_SlaveSetAddrIntHandler(I2C1_SlaveDefAdd
      +                          rInterruptHandler);
  2292     00D0  30F9               	movlw	low _I2C1_SlaveDefAddrInterruptHandler
  2293     00D1  00F3               	movwf	I2C1_SlaveSetAddrIntHandler@handler
  2294     00D2  3001               	movlw	high _I2C1_SlaveDefAddrInterruptHandler
  2295     00D3  00F4               	movwf	I2C1_SlaveSetAddrIntHandler@handler+1
  2296     00D4  3181  21F3  3180   	fcall	_I2C1_SlaveSetAddrIntHandler
  2297                           
  2298                           ;mcc_generated_files/i2c1_slave.c: 126:     I2C1_SlaveSetWrColIntHandler(I2C1_SlaveDefWr
      +                          ColInterruptHandler);
  2299     00D7  3000               	movlw	0
  2300     00D8  00F3               	movwf	I2C1_SlaveSetWrColIntHandler@handler
  2301     00D9  3000               	movlw	0
  2302     00DA  00F4               	movwf	I2C1_SlaveSetWrColIntHandler@handler+1
  2303     00DB  3181  21DB  3180   	fcall	_I2C1_SlaveSetWrColIntHandler
  2304     00DE                     l1626:
  2305                           
  2306                           ;mcc_generated_files/i2c1_slave.c: 127:     I2C1_SlaveEnableIrq();
  2307     00DE  3182  222D  3180   	fcall	_I2C1_SlaveEnableIrq
  2308     00E1                     l226:
  2309     00E1  0008               	return
  2310     00E2                     __end_of_I2C1_Open:
  2311                           
  2312                           	psect	text11
  2313     01D5                     __ptext11:	
  2314 ;; *************** function _I2C1_SlaveSetWriteIntHandler *****************
  2315 ;; Defined at:
  2316 ;;		line 246 in file "mcc_generated_files/i2c1_slave.c"
  2317 ;; Parameters:    Size  Location     Type
  2318 ;;  handler         2    3[COMMON] PTR FTN()void 
  2319 ;;		 -> I2C1_SlaveDefWrInterruptHandler(1), 
  2320 ;; Auto vars:     Size  Location     Type
  2321 ;;		None
  2322 ;; Return value:  Size  Location     Type
  2323 ;;                  1    wreg      void 
  2324 ;; Registers used:
  2325 ;;		wreg
  2326 ;; Tracked objects:
  2327 ;;		On entry : 0/0
  2328 ;;		On exit  : 0/0
  2329 ;;		Unchanged: 0/0
  2330 ;; Data sizes:     COMMON   BANK0   BANK1   BANK2
  2331 ;;      Params:         2       0       0       0
  2332 ;;      Locals:         0       0       0       0
  2333 ;;      Temps:          0       0       0       0
  2334 ;;      Totals:         2       0       0       0
  2335 ;;Total ram usage:        2 bytes
  2336 ;; Hardware stack levels used: 1
  2337 ;; Hardware stack levels required when called: 5
  2338 ;; This function calls:
  2339 ;;		Nothing
  2340 ;; This function is called by:
  2341 ;;		_I2C1_Open
  2342 ;; This function uses a non-reentrant model
  2343 ;;
  2344                           
  2345     01D5                     _I2C1_SlaveSetWriteIntHandler:	
  2346                           ;psect for function _I2C1_SlaveSetWriteIntHandler
  2347                           
  2348     01D5                     l1598:	
  2349                           ;incstack = 0
  2350                           ; Regs used in _I2C1_SlaveSetWriteIntHandler: [wreg]
  2351                           
  2352                           
  2353                           ;mcc_generated_files/i2c1_slave.c: 247:     I2C1_SlaveWrInterruptHandler = handler;
  2354     01D5  0874               	movf	I2C1_SlaveSetWriteIntHandler@handler+1,w
  2355     01D6  0140               	movlb	0	; select bank0
  2356     01D7  00A7               	movwf	_I2C1_SlaveWrInterruptHandler+1
  2357     01D8  0873               	movf	I2C1_SlaveSetWriteIntHandler@handler,w
  2358     01D9  00A6               	movwf	_I2C1_SlaveWrInterruptHandler
  2359     01DA                     l282:
  2360     01DA  0008               	return
  2361     01DB                     __end_of_I2C1_SlaveSetWriteIntHandler:
  2362                           
  2363                           	psect	text12
  2364     01DB                     __ptext12:	
  2365 ;; *************** function _I2C1_SlaveSetWrColIntHandler *****************
  2366 ;; Defined at:
  2367 ;;		line 279 in file "mcc_generated_files/i2c1_slave.c"
  2368 ;; Parameters:    Size  Location     Type
  2369 ;;  handler         2    3[COMMON] PTR FTN()void 
  2370 ;;		 -> I2C1_SlaveDefWrColInterruptHandler(1), 
  2371 ;; Auto vars:     Size  Location     Type
  2372 ;;		None
  2373 ;; Return value:  Size  Location     Type
  2374 ;;                  1    wreg      void 
  2375 ;; Registers used:
  2376 ;;		wreg
  2377 ;; Tracked objects:
  2378 ;;		On entry : 0/0
  2379 ;;		On exit  : 0/0
  2380 ;;		Unchanged: 0/0
  2381 ;; Data sizes:     COMMON   BANK0   BANK1   BANK2
  2382 ;;      Params:         2       0       0       0
  2383 ;;      Locals:         0       0       0       0
  2384 ;;      Temps:          0       0       0       0
  2385 ;;      Totals:         2       0       0       0
  2386 ;;Total ram usage:        2 bytes
  2387 ;; Hardware stack levels used: 1
  2388 ;; Hardware stack levels required when called: 5
  2389 ;; This function calls:
  2390 ;;		Nothing
  2391 ;; This function is called by:
  2392 ;;		_I2C1_Open
  2393 ;; This function uses a non-reentrant model
  2394 ;;
  2395                           
  2396     01DB                     _I2C1_SlaveSetWrColIntHandler:	
  2397                           ;psect for function _I2C1_SlaveSetWrColIntHandler
  2398                           
  2399     01DB                     l1604:	
  2400                           ;incstack = 0
  2401                           ; Regs used in _I2C1_SlaveSetWrColIntHandler: [wreg]
  2402                           
  2403                           
  2404                           ;mcc_generated_files/i2c1_slave.c: 280:     I2C1_SlaveWrColInterruptHandler = handler;
  2405     01DB  0874               	movf	I2C1_SlaveSetWrColIntHandler@handler+1,w
  2406     01DC  0140               	movlb	0	; select bank0
  2407     01DD  00A1               	movwf	_I2C1_SlaveWrColInterruptHandler+1
  2408     01DE  0873               	movf	I2C1_SlaveSetWrColIntHandler@handler,w
  2409     01DF  00A0               	movwf	_I2C1_SlaveWrColInterruptHandler
  2410     01E0                     l302:
  2411     01E0  0008               	return
  2412     01E1                     __end_of_I2C1_SlaveSetWrColIntHandler:
  2413                           
  2414                           	psect	text13
  2415     0204                     __ptext13:	
  2416 ;; *************** function _I2C1_SlaveSetSlaveMask *****************
  2417 ;; Defined at:
  2418 ;;		line 336 in file "mcc_generated_files/i2c1_slave.c"
  2419 ;; Parameters:    Size  Location     Type
  2420 ;;  maskAddr        1    wreg     unsigned char 
  2421 ;; Auto vars:     Size  Location     Type
  2422 ;;  maskAddr        1    3[COMMON] unsigned char 
  2423 ;; Return value:  Size  Location     Type
  2424 ;;                  1    wreg      void 
  2425 ;; Registers used:
  2426 ;;		wreg, status,2, status,0
  2427 ;; Tracked objects:
  2428 ;;		On entry : 0/0
  2429 ;;		On exit  : 0/0
  2430 ;;		Unchanged: 0/0
  2431 ;; Data sizes:     COMMON   BANK0   BANK1   BANK2
  2432 ;;      Params:         0       0       0       0
  2433 ;;      Locals:         1       0       0       0
  2434 ;;      Temps:          0       0       0       0
  2435 ;;      Totals:         1       0       0       0
  2436 ;;Total ram usage:        1 bytes
  2437 ;; Hardware stack levels used: 1
  2438 ;; Hardware stack levels required when called: 5
  2439 ;; This function calls:
  2440 ;;		Nothing
  2441 ;; This function is called by:
  2442 ;;		_I2C1_Open
  2443 ;; This function uses a non-reentrant model
  2444 ;;
  2445                           
  2446     0204                     _I2C1_SlaveSetSlaveMask:	
  2447                           ;psect for function _I2C1_SlaveSetSlaveMask
  2448                           
  2449                           
  2450                           ;incstack = 0
  2451                           ; Regs used in _I2C1_SlaveSetSlaveMask: [wreg+status,2+status,0]
  2452                           ;I2C1_SlaveSetSlaveMask@maskAddr stored from wreg
  2453     0204  00F3               	movwf	I2C1_SlaveSetSlaveMask@maskAddr
  2454     0205                     l1592:
  2455                           
  2456                           ;mcc_generated_files/i2c1_slave.c: 336: static __attribute__((inline)) void I2C1_SlaveSe
      +                          tSlaveMask(uint8_t maskAddr);mcc_generated_files/i2c1_slave.c: 337: {;mcc_generated_file
      +                          s/i2c1_slave.c: 338:     SSP1MSK = (uint8_t) (maskAddr << 1);
  2457     0205  3573               	lslf	I2C1_SlaveSetSlaveMask@maskAddr,w
  2458     0206  0143               	movlb	3	; select bank3
  2459     0207  008E               	movwf	14	;volatile
  2460     0208                     l332:
  2461     0208  0008               	return
  2462     0209                     __end_of_I2C1_SlaveSetSlaveMask:
  2463                           
  2464                           	psect	text14
  2465     0209                     __ptext14:	
  2466 ;; *************** function _I2C1_SlaveSetSlaveAddr *****************
  2467 ;; Defined at:
  2468 ;;		line 331 in file "mcc_generated_files/i2c1_slave.c"
  2469 ;; Parameters:    Size  Location     Type
  2470 ;;  slaveAddr       1    wreg     unsigned char 
  2471 ;; Auto vars:     Size  Location     Type
  2472 ;;  slaveAddr       1    3[COMMON] unsigned char 
  2473 ;; Return value:  Size  Location     Type
  2474 ;;                  1    wreg      void 
  2475 ;; Registers used:
  2476 ;;		wreg, status,2, status,0
  2477 ;; Tracked objects:
  2478 ;;		On entry : 0/0
  2479 ;;		On exit  : 0/0
  2480 ;;		Unchanged: 0/0
  2481 ;; Data sizes:     COMMON   BANK0   BANK1   BANK2
  2482 ;;      Params:         0       0       0       0
  2483 ;;      Locals:         1       0       0       0
  2484 ;;      Temps:          0       0       0       0
  2485 ;;      Totals:         1       0       0       0
  2486 ;;Total ram usage:        1 bytes
  2487 ;; Hardware stack levels used: 1
  2488 ;; Hardware stack levels required when called: 5
  2489 ;; This function calls:
  2490 ;;		Nothing
  2491 ;; This function is called by:
  2492 ;;		_I2C1_Open
  2493 ;; This function uses a non-reentrant model
  2494 ;;
  2495                           
  2496     0209                     _I2C1_SlaveSetSlaveAddr:	
  2497                           ;psect for function _I2C1_SlaveSetSlaveAddr
  2498                           
  2499                           
  2500                           ;incstack = 0
  2501                           ; Regs used in _I2C1_SlaveSetSlaveAddr: [wreg+status,2+status,0]
  2502                           ;I2C1_SlaveSetSlaveAddr@slaveAddr stored from wreg
  2503     0209  00F3               	movwf	I2C1_SlaveSetSlaveAddr@slaveAddr
  2504     020A                     l1590:
  2505                           
  2506                           ;mcc_generated_files/i2c1_slave.c: 331: static __attribute__((inline)) void I2C1_SlaveSe
      +                          tSlaveAddr(uint8_t slaveAddr);mcc_generated_files/i2c1_slave.c: 332: {;mcc_generated_fil
      +                          es/i2c1_slave.c: 333:     SSP1ADD = (uint8_t) (slaveAddr << 1);
  2507     020A  3573               	lslf	I2C1_SlaveSetSlaveAddr@slaveAddr,w
  2508     020B  0143               	movlb	3	; select bank3
  2509     020C  008D               	movwf	13	;volatile
  2510     020D                     l329:
  2511     020D  0008               	return
  2512     020E                     __end_of_I2C1_SlaveSetSlaveAddr:
  2513                           
  2514                           	psect	text15
  2515     01E1                     __ptext15:	
  2516 ;; *************** function _I2C1_SlaveSetReadIntHandler *****************
  2517 ;; Defined at:
  2518 ;;		line 229 in file "mcc_generated_files/i2c1_slave.c"
  2519 ;; Parameters:    Size  Location     Type
  2520 ;;  handler         2    3[COMMON] PTR FTN()void 
  2521 ;;		 -> I2C1_SlaveDefRdInterruptHandler(1), 
  2522 ;; Auto vars:     Size  Location     Type
  2523 ;;		None
  2524 ;; Return value:  Size  Location     Type
  2525 ;;                  1    wreg      void 
  2526 ;; Registers used:
  2527 ;;		wreg
  2528 ;; Tracked objects:
  2529 ;;		On entry : 0/0
  2530 ;;		On exit  : 0/0
  2531 ;;		Unchanged: 0/0
  2532 ;; Data sizes:     COMMON   BANK0   BANK1   BANK2
  2533 ;;      Params:         2       0       0       0
  2534 ;;      Locals:         0       0       0       0
  2535 ;;      Temps:          0       0       0       0
  2536 ;;      Totals:         2       0       0       0
  2537 ;;Total ram usage:        2 bytes
  2538 ;; Hardware stack levels used: 1
  2539 ;; Hardware stack levels required when called: 5
  2540 ;; This function calls:
  2541 ;;		Nothing
  2542 ;; This function is called by:
  2543 ;;		_I2C1_Open
  2544 ;; This function uses a non-reentrant model
  2545 ;;
  2546                           
  2547     01E1                     _I2C1_SlaveSetReadIntHandler:	
  2548                           ;psect for function _I2C1_SlaveSetReadIntHandler
  2549                           
  2550     01E1                     l1600:	
  2551                           ;incstack = 0
  2552                           ; Regs used in _I2C1_SlaveSetReadIntHandler: [wreg]
  2553                           
  2554                           
  2555                           ;mcc_generated_files/i2c1_slave.c: 230:     I2C1_SlaveRdInterruptHandler = handler;
  2556     01E1  0874               	movf	I2C1_SlaveSetReadIntHandler@handler+1,w
  2557     01E2  0140               	movlb	0	; select bank0
  2558     01E3  00A9               	movwf	_I2C1_SlaveRdInterruptHandler+1
  2559     01E4  0873               	movf	I2C1_SlaveSetReadIntHandler@handler,w
  2560     01E5  00A8               	movwf	_I2C1_SlaveRdInterruptHandler
  2561     01E6                     l272:
  2562     01E6  0008               	return
  2563     01E7                     __end_of_I2C1_SlaveSetReadIntHandler:
  2564                           
  2565                           	psect	text16
  2566     01E7                     __ptext16:	
  2567 ;; *************** function _I2C1_SlaveSetIsrHandler *****************
  2568 ;; Defined at:
  2569 ;;		line 223 in file "mcc_generated_files/i2c1_slave.c"
  2570 ;; Parameters:    Size  Location     Type
  2571 ;;  handler         2    3[COMMON] PTR FTN()void 
  2572 ;;		 -> I2C1_Isr(1), 
  2573 ;; Auto vars:     Size  Location     Type
  2574 ;;		None
  2575 ;; Return value:  Size  Location     Type
  2576 ;;                  1    wreg      void 
  2577 ;; Registers used:
  2578 ;;		wreg
  2579 ;; Tracked objects:
  2580 ;;		On entry : 0/0
  2581 ;;		On exit  : 0/0
  2582 ;;		Unchanged: 0/0
  2583 ;; Data sizes:     COMMON   BANK0   BANK1   BANK2
  2584 ;;      Params:         2       0       0       0
  2585 ;;      Locals:         0       0       0       0
  2586 ;;      Temps:          0       0       0       0
  2587 ;;      Totals:         2       0       0       0
  2588 ;;Total ram usage:        2 bytes
  2589 ;; Hardware stack levels used: 1
  2590 ;; Hardware stack levels required when called: 5
  2591 ;; This function calls:
  2592 ;;		Nothing
  2593 ;; This function is called by:
  2594 ;;		_I2C1_Open
  2595 ;; This function uses a non-reentrant model
  2596 ;;
  2597                           
  2598     01E7                     _I2C1_SlaveSetIsrHandler:	
  2599                           ;psect for function _I2C1_SlaveSetIsrHandler
  2600                           
  2601     01E7                     l1594:	
  2602                           ;incstack = 0
  2603                           ; Regs used in _I2C1_SlaveSetIsrHandler: [wreg]
  2604                           
  2605                           
  2606                           ;mcc_generated_files/i2c1_slave.c: 223: void I2C1_SlaveSetIsrHandler(i2c1InterruptHandle
      +                          r handler);mcc_generated_files/i2c1_slave.c: 224: {;mcc_generated_files/i2c1_slave.c: 22
      +                          5:     MSSP1_InterruptHandler = handler;
  2607     01E7  0874               	movf	I2C1_SlaveSetIsrHandler@handler+1,w
  2608     01E8  0140               	movlb	0	; select bank0
  2609     01E9  00AB               	movwf	_MSSP1_InterruptHandler+1
  2610     01EA  0873               	movf	I2C1_SlaveSetIsrHandler@handler,w
  2611     01EB  00AA               	movwf	_MSSP1_InterruptHandler
  2612     01EC                     l269:
  2613     01EC  0008               	return
  2614     01ED                     __end_of_I2C1_SlaveSetIsrHandler:
  2615                           
  2616                           	psect	text17
  2617     01ED                     __ptext17:	
  2618 ;; *************** function _I2C1_SlaveSetBusColIntHandler *****************
  2619 ;; Defined at:
  2620 ;;		line 295 in file "mcc_generated_files/i2c1_slave.c"
  2621 ;; Parameters:    Size  Location     Type
  2622 ;;  handler         2    3[COMMON] PTR FTN()void 
  2623 ;;		 -> I2C1_SlaveDefBusColInterruptHandler(1), 
  2624 ;; Auto vars:     Size  Location     Type
  2625 ;;		None
  2626 ;; Return value:  Size  Location     Type
  2627 ;;                  1    wreg      void 
  2628 ;; Registers used:
  2629 ;;		wreg
  2630 ;; Tracked objects:
  2631 ;;		On entry : 0/0
  2632 ;;		On exit  : 0/0
  2633 ;;		Unchanged: 0/0
  2634 ;; Data sizes:     COMMON   BANK0   BANK1   BANK2
  2635 ;;      Params:         2       0       0       0
  2636 ;;      Locals:         0       0       0       0
  2637 ;;      Temps:          0       0       0       0
  2638 ;;      Totals:         2       0       0       0
  2639 ;;Total ram usage:        2 bytes
  2640 ;; Hardware stack levels used: 1
  2641 ;; Hardware stack levels required when called: 5
  2642 ;; This function calls:
  2643 ;;		Nothing
  2644 ;; This function is called by:
  2645 ;;		_I2C1_Open
  2646 ;; This function uses a non-reentrant model
  2647 ;;
  2648                           
  2649     01ED                     _I2C1_SlaveSetBusColIntHandler:	
  2650                           ;psect for function _I2C1_SlaveSetBusColIntHandler
  2651                           
  2652     01ED                     l1596:	
  2653                           ;incstack = 0
  2654                           ; Regs used in _I2C1_SlaveSetBusColIntHandler: [wreg]
  2655                           
  2656                           
  2657                           ;mcc_generated_files/i2c1_slave.c: 296:     I2C1_SlaveBusColInterruptHandler = handler;
  2658     01ED  0874               	movf	I2C1_SlaveSetBusColIntHandler@handler+1,w
  2659     01EE  0140               	movlb	0	; select bank0
  2660     01EF  00A3               	movwf	_I2C1_SlaveBusColInterruptHandler+1
  2661     01F0  0873               	movf	I2C1_SlaveSetBusColIntHandler@handler,w
  2662     01F1  00A2               	movwf	_I2C1_SlaveBusColInterruptHandler
  2663     01F2                     l312:
  2664     01F2  0008               	return
  2665     01F3                     __end_of_I2C1_SlaveSetBusColIntHandler:
  2666                           
  2667                           	psect	text18
  2668     01F3                     __ptext18:	
  2669 ;; *************** function _I2C1_SlaveSetAddrIntHandler *****************
  2670 ;; Defined at:
  2671 ;;		line 263 in file "mcc_generated_files/i2c1_slave.c"
  2672 ;; Parameters:    Size  Location     Type
  2673 ;;  handler         2    3[COMMON] PTR FTN()void 
  2674 ;;		 -> I2C1_SlaveDefAddrInterruptHandler(1), 
  2675 ;; Auto vars:     Size  Location     Type
  2676 ;;		None
  2677 ;; Return value:  Size  Location     Type
  2678 ;;                  1    wreg      void 
  2679 ;; Registers used:
  2680 ;;		wreg
  2681 ;; Tracked objects:
  2682 ;;		On entry : 0/0
  2683 ;;		On exit  : 0/0
  2684 ;;		Unchanged: 0/0
  2685 ;; Data sizes:     COMMON   BANK0   BANK1   BANK2
  2686 ;;      Params:         2       0       0       0
  2687 ;;      Locals:         0       0       0       0
  2688 ;;      Temps:          0       0       0       0
  2689 ;;      Totals:         2       0       0       0
  2690 ;;Total ram usage:        2 bytes
  2691 ;; Hardware stack levels used: 1
  2692 ;; Hardware stack levels required when called: 5
  2693 ;; This function calls:
  2694 ;;		Nothing
  2695 ;; This function is called by:
  2696 ;;		_I2C1_Open
  2697 ;; This function uses a non-reentrant model
  2698 ;;
  2699                           
  2700     01F3                     _I2C1_SlaveSetAddrIntHandler:	
  2701                           ;psect for function _I2C1_SlaveSetAddrIntHandler
  2702                           
  2703     01F3                     l1602:	
  2704                           ;incstack = 0
  2705                           ; Regs used in _I2C1_SlaveSetAddrIntHandler: [wreg]
  2706                           
  2707                           
  2708                           ;mcc_generated_files/i2c1_slave.c: 264:     I2C1_SlaveAddrInterruptHandler = handler;
  2709     01F3  0874               	movf	I2C1_SlaveSetAddrIntHandler@handler+1,w
  2710     01F4  0140               	movlb	0	; select bank0
  2711     01F5  00A5               	movwf	_I2C1_SlaveAddrInterruptHandler+1
  2712     01F6  0873               	movf	I2C1_SlaveSetAddrIntHandler@handler,w
  2713     01F7  00A4               	movwf	_I2C1_SlaveAddrInterruptHandler
  2714     01F8                     l292:
  2715     01F8  0008               	return
  2716     01F9                     __end_of_I2C1_SlaveSetAddrIntHandler:
  2717                           
  2718                           	psect	text19
  2719     0166                     __ptext19:	
  2720 ;; *************** function _I2C1_SlaveOpen *****************
  2721 ;; Defined at:
  2722 ;;		line 310 in file "mcc_generated_files/i2c1_slave.c"
  2723 ;; Parameters:    Size  Location     Type
  2724 ;;		None
  2725 ;; Auto vars:     Size  Location     Type
  2726 ;;		None
  2727 ;; Return value:  Size  Location     Type
  2728 ;;                  1    wreg      _Bool 
  2729 ;; Registers used:
  2730 ;;		wreg, status,2, status,0
  2731 ;; Tracked objects:
  2732 ;;		On entry : 0/0
  2733 ;;		On exit  : 0/0
  2734 ;;		Unchanged: 0/0
  2735 ;; Data sizes:     COMMON   BANK0   BANK1   BANK2
  2736 ;;      Params:         0       0       0       0
  2737 ;;      Locals:         0       0       0       0
  2738 ;;      Temps:          1       0       0       0
  2739 ;;      Totals:         1       0       0       0
  2740 ;;Total ram usage:        1 bytes
  2741 ;; Hardware stack levels used: 1
  2742 ;; Hardware stack levels required when called: 5
  2743 ;; This function calls:
  2744 ;;		Nothing
  2745 ;; This function is called by:
  2746 ;;		_I2C1_Open
  2747 ;; This function uses a non-reentrant model
  2748 ;;
  2749                           
  2750     0166                     _I2C1_SlaveOpen:	
  2751                           ;psect for function _I2C1_SlaveOpen
  2752                           
  2753     0166                     l1578:	
  2754                           ;incstack = 0
  2755                           ; Regs used in _I2C1_SlaveOpen: [wreg+status,2+status,0]
  2756                           
  2757                           
  2758                           ;mcc_generated_files/i2c1_slave.c: 312:     if(!SSP1CON1bits.SSPEN)
  2759     0166  0143               	movlb	3	; select bank3
  2760     0167  1A90               	btfsc	16,5	;volatile
  2761     0168  296A               	goto	u421
  2762     0169  296B               	goto	u420
  2763     016A                     u421:
  2764     016A  2973               	goto	l323
  2765     016B                     u420:
  2766     016B                     l1580:
  2767                           
  2768                           ;mcc_generated_files/i2c1_slave.c: 313:     {;mcc_generated_files/i2c1_slave.c: 314:    
      +                               SSP1STAT = 0x40;
  2769     016B  3040               	movlw	64
  2770     016C  008F               	movwf	15	;volatile
  2771     016D                     l1582:
  2772                           
  2773                           ;mcc_generated_files/i2c1_slave.c: 315:         SSP1CON1 |= 0x06;
  2774     016D  3006               	movlw	6
  2775     016E  00F3               	movwf	??_I2C1_SlaveOpen
  2776     016F  0873               	movf	??_I2C1_SlaveOpen,w
  2777     0170  0490               	iorwf	16,f	;volatile
  2778     0171                     l1584:
  2779                           
  2780                           ;mcc_generated_files/i2c1_slave.c: 316:         SSP1CON2 = 0x00;
  2781     0171  0191               	clrf	17	;volatile
  2782     0172                     l1586:
  2783                           
  2784                           ;mcc_generated_files/i2c1_slave.c: 317:         SSP1CON1bits.SSPEN = 1;
  2785     0172  1690               	bsf	16,5	;volatile
  2786     0173                     l323:
  2787     0173  0008               	return
  2788     0174                     __end_of_I2C1_SlaveOpen:
  2789                           
  2790                           	psect	text20
  2791     022D                     __ptext20:	
  2792 ;; *************** function _I2C1_SlaveEnableIrq *****************
  2793 ;; Defined at:
  2794 ;;		line 341 in file "mcc_generated_files/i2c1_slave.c"
  2795 ;; Parameters:    Size  Location     Type
  2796 ;;		None
  2797 ;; Auto vars:     Size  Location     Type
  2798 ;;		None
  2799 ;; Return value:  Size  Location     Type
  2800 ;;                  1    wreg      void 
  2801 ;; Registers used:
  2802 ;;		None
  2803 ;; Tracked objects:
  2804 ;;		On entry : 0/0
  2805 ;;		On exit  : 0/0
  2806 ;;		Unchanged: 0/0
  2807 ;; Data sizes:     COMMON   BANK0   BANK1   BANK2
  2808 ;;      Params:         0       0       0       0
  2809 ;;      Locals:         0       0       0       0
  2810 ;;      Temps:          0       0       0       0
  2811 ;;      Totals:         0       0       0       0
  2812 ;;Total ram usage:        0 bytes
  2813 ;; Hardware stack levels used: 1
  2814 ;; Hardware stack levels required when called: 5
  2815 ;; This function calls:
  2816 ;;		Nothing
  2817 ;; This function is called by:
  2818 ;;		_I2C1_Open
  2819 ;; This function uses a non-reentrant model
  2820 ;;
  2821                           
  2822     022D                     _I2C1_SlaveEnableIrq:	
  2823                           ;psect for function _I2C1_SlaveEnableIrq
  2824                           
  2825     022D                     l1606:	
  2826                           ;incstack = 0
  2827                           ; Regs used in _I2C1_SlaveEnableIrq: []
  2828                           
  2829                           
  2830                           ;mcc_generated_files/i2c1_slave.c: 343:     PIE1bits.SSP1IE = 1;
  2831     022D  014E               	movlb	14	; select bank14
  2832     022E  1497               	bsf	23,1	;volatile
  2833     022F                     l335:
  2834     022F  0008               	return
  2835     0230                     __end_of_I2C1_SlaveEnableIrq:
  2836                           
  2837                           	psect	text21
  2838     0222                     __ptext21:	
  2839 ;; *************** function _I2C1_Close *****************
  2840 ;; Defined at:
  2841 ;;		line 130 in file "mcc_generated_files/i2c1_slave.c"
  2842 ;; Parameters:    Size  Location     Type
  2843 ;;		None
  2844 ;; Auto vars:     Size  Location     Type
  2845 ;;		None
  2846 ;; Return value:  Size  Location     Type
  2847 ;;                  1    wreg      void 
  2848 ;; Registers used:
  2849 ;;		wreg, status,2, status,0, pclath, cstack
  2850 ;; Tracked objects:
  2851 ;;		On entry : 0/0
  2852 ;;		On exit  : 0/0
  2853 ;;		Unchanged: 0/0
  2854 ;; Data sizes:     COMMON   BANK0   BANK1   BANK2
  2855 ;;      Params:         0       0       0       0
  2856 ;;      Locals:         0       0       0       0
  2857 ;;      Temps:          0       0       0       0
  2858 ;;      Totals:         0       0       0       0
  2859 ;;Total ram usage:        0 bytes
  2860 ;; Hardware stack levels used: 1
  2861 ;; Hardware stack levels required when called: 6
  2862 ;; This function calls:
  2863 ;;		_I2C1_SlaveClose
  2864 ;; This function is called by:
  2865 ;;		_main
  2866 ;; This function uses a non-reentrant model
  2867 ;;
  2868                           
  2869     0222                     _I2C1_Close:	
  2870                           ;psect for function _I2C1_Close
  2871                           
  2872     0222                     l1628:	
  2873                           ;incstack = 0
  2874                           ; Regs used in _I2C1_Close: [wreg+status,2+status,0+pclath+cstack]
  2875                           
  2876                           
  2877                           ;mcc_generated_files/i2c1_slave.c: 132:     I2C1_SlaveClose();
  2878     0222  3181  21A5  3182   	fcall	_I2C1_SlaveClose
  2879     0225                     l229:
  2880     0225  0008               	return
  2881     0226                     __end_of_I2C1_Close:
  2882                           
  2883                           	psect	text22
  2884     01A5                     __ptext22:	
  2885 ;; *************** function _I2C1_SlaveClose *****************
  2886 ;; Defined at:
  2887 ;;		line 323 in file "mcc_generated_files/i2c1_slave.c"
  2888 ;; Parameters:    Size  Location     Type
  2889 ;;		None
  2890 ;; Auto vars:     Size  Location     Type
  2891 ;;		None
  2892 ;; Return value:  Size  Location     Type
  2893 ;;                  1    wreg      void 
  2894 ;; Registers used:
  2895 ;;		wreg, status,2, status,0
  2896 ;; Tracked objects:
  2897 ;;		On entry : 0/0
  2898 ;;		On exit  : 0/0
  2899 ;;		Unchanged: 0/0
  2900 ;; Data sizes:     COMMON   BANK0   BANK1   BANK2
  2901 ;;      Params:         0       0       0       0
  2902 ;;      Locals:         0       0       0       0
  2903 ;;      Temps:          1       0       0       0
  2904 ;;      Totals:         1       0       0       0
  2905 ;;Total ram usage:        1 bytes
  2906 ;; Hardware stack levels used: 1
  2907 ;; Hardware stack levels required when called: 5
  2908 ;; This function calls:
  2909 ;;		Nothing
  2910 ;; This function is called by:
  2911 ;;		_I2C1_Close
  2912 ;; This function uses a non-reentrant model
  2913 ;;
  2914                           
  2915     01A5                     _I2C1_SlaveClose:	
  2916                           ;psect for function _I2C1_SlaveClose
  2917                           
  2918     01A5                     l1608:	
  2919                           ;incstack = 0
  2920                           ; Regs used in _I2C1_SlaveClose: [wreg+status,2+status,0]
  2921                           
  2922                           
  2923                           ;mcc_generated_files/i2c1_slave.c: 325:     SSP1STAT = 0x40;
  2924     01A5  3040               	movlw	64
  2925     01A6  0143               	movlb	3	; select bank3
  2926     01A7  008F               	movwf	15	;volatile
  2927     01A8                     l1610:
  2928                           
  2929                           ;mcc_generated_files/i2c1_slave.c: 326:     SSP1CON1 |= 0x06;
  2930     01A8  3006               	movlw	6
  2931     01A9  00F3               	movwf	??_I2C1_SlaveClose
  2932     01AA  0873               	movf	??_I2C1_SlaveClose,w
  2933     01AB  0490               	iorwf	16,f	;volatile
  2934     01AC                     l1612:
  2935                           
  2936                           ;mcc_generated_files/i2c1_slave.c: 327:     SSP1CON2 = 0x00;
  2937     01AC  0191               	clrf	17	;volatile
  2938     01AD                     l1614:
  2939                           
  2940                           ;mcc_generated_files/i2c1_slave.c: 328:     SSP1CON1bits.SSPEN = 0;
  2941     01AD  1290               	bcf	16,5	;volatile
  2942     01AE                     l326:
  2943     01AE  0008               	return
  2944     01AF                     __end_of_I2C1_SlaveClose:
  2945                           
  2946                           	psect	intentry
  2947     0004                     __pintentry:	
  2948 ;; *************** function _INTERRUPT_InterruptManager *****************
  2949 ;; Defined at:
  2950 ;;		line 52 in file "mcc_generated_files/interrupt_manager.c"
  2951 ;; Parameters:    Size  Location     Type
  2952 ;;		None
  2953 ;; Auto vars:     Size  Location     Type
  2954 ;;		None
  2955 ;; Return value:  Size  Location     Type
  2956 ;;                  1    wreg      void 
  2957 ;; Registers used:
  2958 ;;		wreg, fsr0l, fsr0h, status,2, status,0, pclath, cstack
  2959 ;; Tracked objects:
  2960 ;;		On entry : 0/0
  2961 ;;		On exit  : 0/0
  2962 ;;		Unchanged: 0/0
  2963 ;; Data sizes:     COMMON   BANK0   BANK1   BANK2
  2964 ;;      Params:         0       0       0       0
  2965 ;;      Locals:         0       0       0       0
  2966 ;;      Temps:          0       0       0       0
  2967 ;;      Totals:         0       0       0       0
  2968 ;;Total ram usage:        0 bytes
  2969 ;; Hardware stack levels used: 1
  2970 ;; Hardware stack levels required when called: 4
  2971 ;; This function calls:
  2972 ;;		NULL
  2973 ;;		_I2C1_Isr
  2974 ;;		_TMR0_ISR
  2975 ;; This function is called by:
  2976 ;;		Interrupt level 1
  2977 ;; This function uses a non-reentrant model
  2978 ;;
  2979                           
  2980     0004                     _INTERRUPT_InterruptManager:
  2981                           
  2982                           ;incstack = 0
  2983     0004  147E               	bsf	int$flags,0	;set compiler interrupt flag (level 1)
  2984                           
  2985                           ; Regs used in _INTERRUPT_InterruptManager: [wreg-fsr0h+status,2+status,0+pclath+cstack]
  2986     0005  3180               	pagesel	$
  2987     0006                     i1l1442:
  2988                           
  2989                           ;mcc_generated_files/interrupt_manager.c: 55:     if(PIE0bits.TMR0IE == 1 && PIR0bits.TM
      +                          R0IF == 1)
  2990     0006  014E               	movlb	14	; select bank14
  2991     0007  1E96               	btfss	22,5	;volatile
  2992     0008  280A               	goto	u32_21
  2993     0009  280B               	goto	u32_20
  2994     000A                     u32_21:
  2995     000A  2813               	goto	i1l110
  2996     000B                     u32_20:
  2997     000B                     i1l1444:
  2998     000B  1E8C               	btfss	12,5	;volatile
  2999     000C  280E               	goto	u33_21
  3000     000D  280F               	goto	u33_20
  3001     000E                     u33_21:
  3002     000E  2813               	goto	i1l110
  3003     000F                     u33_20:
  3004     000F                     i1l1446:
  3005                           
  3006                           ;mcc_generated_files/interrupt_manager.c: 56:     {;mcc_generated_files/interrupt_manage
      +                          r.c: 57:         TMR0_ISR();
  3007     000F  3181  2157  3180   	fcall	_TMR0_ISR
  3008                           
  3009                           ;mcc_generated_files/interrupt_manager.c: 58:     }
  3010     0012  282F               	goto	i1l118
  3011     0013                     i1l110:	
  3012                           ;mcc_generated_files/interrupt_manager.c: 59:     else if(INTCONbits.PEIE == 1)
  3013                           
  3014     0013  1F0B               	btfss	11,6	;volatile
  3015     0014  2816               	goto	u34_21
  3016     0015  2817               	goto	u34_20
  3017     0016                     u34_21:
  3018     0016  282F               	goto	i1l118
  3019     0017                     u34_20:
  3020     0017                     i1l1448:
  3021                           
  3022                           ;mcc_generated_files/interrupt_manager.c: 60:     {;mcc_generated_files/interrupt_manage
      +                          r.c: 61:         if(PIE1bits.BCL1IE == 1 && PIR1bits.BCL1IF == 1)
  3023     0017  1D17               	btfss	23,2	;volatile
  3024     0018  281A               	goto	u35_21
  3025     0019  281B               	goto	u35_20
  3026     001A                     u35_21:
  3027     001A  2826               	goto	i1l113
  3028     001B                     u35_20:
  3029     001B                     i1l1450:
  3030     001B  1D0D               	btfss	13,2	;volatile
  3031     001C  281E               	goto	u36_21
  3032     001D  281F               	goto	u36_20
  3033     001E                     u36_21:
  3034     001E  2826               	goto	i1l113
  3035     001F                     u36_20:
  3036     001F                     i1l1452:
  3037                           
  3038                           ;mcc_generated_files/interrupt_manager.c: 62:         {;mcc_generated_files/interrupt_ma
      +                          nager.c: 63:             MSSP1_InterruptHandler();
  3039     001F  0140               	movlb	0	; select bank0
  3040     0020  082B               	movf	_MSSP1_InterruptHandler+1,w
  3041     0021  008A               	movwf	10
  3042     0022  082A               	movf	_MSSP1_InterruptHandler,w
  3043     0023  000A               	callw
  3044     0024  3180               	pagesel	$
  3045                           
  3046                           ;mcc_generated_files/interrupt_manager.c: 64:         }
  3047     0025  282F               	goto	i1l118
  3048     0026                     i1l113:	
  3049                           ;mcc_generated_files/interrupt_manager.c: 65:         else if(PIE1bits.SSP1IE == 1 && PI
      +                          R1bits.SSP1IF == 1)
  3050                           
  3051     0026  1C97               	btfss	23,1	;volatile
  3052     0027  2829               	goto	u37_21
  3053     0028  282A               	goto	u37_20
  3054     0029                     u37_21:
  3055     0029  282F               	goto	i1l117
  3056     002A                     u37_20:
  3057     002A                     i1l1454:
  3058     002A  1C8D               	btfss	13,1	;volatile
  3059     002B  282D               	goto	u38_21
  3060     002C  282E               	goto	u38_20
  3061     002D                     u38_21:
  3062     002D  282F               	goto	i1l117
  3063     002E                     u38_20:
  3064     002E  281F               	goto	i1l1452
  3065     002F                     i1l117:	
  3066                           ;mcc_generated_files/interrupt_manager.c: 75:     {;mcc_generated_files/interrupt_manage
      +                          r.c: 77:     }
  3067                           
  3068     002F                     i1l118:
  3069     002F  107E               	bcf	int$flags,0	;clear compiler interrupt flag (level 1)
  3070     0030  0009               	retfie
  3071     0031                     __end_of_INTERRUPT_InterruptManager:
  3072                           
  3073                           	psect	text24
  3074     0157                     __ptext24:	
  3075 ;; *************** function _TMR0_ISR *****************
  3076 ;; Defined at:
  3077 ;;		line 121 in file "mcc_generated_files/tmr0.c"
  3078 ;; Parameters:    Size  Location     Type
  3079 ;;		None
  3080 ;; Auto vars:     Size  Location     Type
  3081 ;;		None
  3082 ;; Return value:  Size  Location     Type
  3083 ;;                  1    wreg      void 
  3084 ;; Registers used:
  3085 ;;		wreg, status,2, status,0, pclath, cstack
  3086 ;; Tracked objects:
  3087 ;;		On entry : 0/0
  3088 ;;		On exit  : 0/0
  3089 ;;		Unchanged: 0/0
  3090 ;; Data sizes:     COMMON   BANK0   BANK1   BANK2
  3091 ;;      Params:         0       0       0       0
  3092 ;;      Locals:         0       0       0       0
  3093 ;;      Temps:          0       0       0       0
  3094 ;;      Totals:         0       0       0       0
  3095 ;;Total ram usage:        0 bytes
  3096 ;; Hardware stack levels used: 1
  3097 ;; Hardware stack levels required when called: 1
  3098 ;; This function calls:
  3099 ;;		NULL
  3100 ;;		_TMR0_DefaultInterruptHandler
  3101 ;; This function is called by:
  3102 ;;		_INTERRUPT_InterruptManager
  3103 ;; This function uses a non-reentrant model
  3104 ;;
  3105                           
  3106     0157                     _TMR0_ISR:	
  3107                           ;psect for function _TMR0_ISR
  3108                           
  3109     0157                     i1l1390:	
  3110                           ;incstack = 0
  3111                           ; Regs used in _TMR0_ISR: [wreg+status,2+status,0+pclath+cstack]
  3112                           
  3113                           
  3114                           ;mcc_generated_files/tmr0.c: 124:     PIR0bits.TMR0IF = 0;
  3115     0157  014E               	movlb	14	; select bank14
  3116     0158  128C               	bcf	12,5	;volatile
  3117     0159                     i1l1392:
  3118                           
  3119                           ;mcc_generated_files/tmr0.c: 125:     if(TMR0_InterruptHandler)
  3120     0159  0140               	movlb	0	; select bank0
  3121     015A  0831               	movf	_TMR0_InterruptHandler,w
  3122     015B  0432               	iorwf	_TMR0_InterruptHandler+1,w
  3123     015C  1903               	btfsc	3,2
  3124     015D  295F               	goto	u25_21
  3125     015E  2960               	goto	u25_20
  3126     015F                     u25_21:
  3127     015F  2965               	goto	i1l422
  3128     0160                     u25_20:
  3129     0160                     i1l1394:
  3130                           
  3131                           ;mcc_generated_files/tmr0.c: 126:     {;mcc_generated_files/tmr0.c: 127:         TMR0_In
      +                          terruptHandler();
  3132     0160  0832               	movf	_TMR0_InterruptHandler+1,w
  3133     0161  008A               	movwf	10
  3134     0162  0831               	movf	_TMR0_InterruptHandler,w
  3135     0163  000A               	callw
  3136     0164  3181               	pagesel	$
  3137     0165                     i1l422:
  3138     0165  0008               	return
  3139     0166                     __end_of_TMR0_ISR:
  3140                           
  3141                           	psect	text25
  3142     0239                     __ptext25:	
  3143 ;; *************** function _TMR0_DefaultInterruptHandler *****************
  3144 ;; Defined at:
  3145 ;;		line 138 in file "mcc_generated_files/tmr0.c"
  3146 ;; Parameters:    Size  Location     Type
  3147 ;;		None
  3148 ;; Auto vars:     Size  Location     Type
  3149 ;;		None
  3150 ;; Return value:  Size  Location     Type
  3151 ;;                  1    wreg      void 
  3152 ;; Registers used:
  3153 ;;		None
  3154 ;; Tracked objects:
  3155 ;;		On entry : 0/0
  3156 ;;		On exit  : 0/0
  3157 ;;		Unchanged: 0/0
  3158 ;; Data sizes:     COMMON   BANK0   BANK1   BANK2
  3159 ;;      Params:         0       0       0       0
  3160 ;;      Locals:         0       0       0       0
  3161 ;;      Temps:          0       0       0       0
  3162 ;;      Totals:         0       0       0       0
  3163 ;;Total ram usage:        0 bytes
  3164 ;; Hardware stack levels used: 1
  3165 ;; This function calls:
  3166 ;;		Nothing
  3167 ;; This function is called by:
  3168 ;;		_TMR0_Initialize
  3169 ;;		_TMR0_ISR
  3170 ;; This function uses a non-reentrant model
  3171 ;;
  3172                           
  3173     0239                     _TMR0_DefaultInterruptHandler:	
  3174                           ;psect for function _TMR0_DefaultInterruptHandler
  3175                           
  3176     0239                     i1l428:	
  3177                           ;incstack = 0
  3178                           ; Regs used in _TMR0_DefaultInterruptHandler: []
  3179                           
  3180     0239  0008               	return
  3181     023A                     __end_of_TMR0_DefaultInterruptHandler:
  3182                           
  3183                           	psect	text26
  3184     0040                     __ptext26:	
  3185 ;; *************** function _I2C1_Isr *****************
  3186 ;; Defined at:
  3187 ;;		line 165 in file "mcc_generated_files/i2c1_slave.c"
  3188 ;; Parameters:    Size  Location     Type
  3189 ;;		None
  3190 ;; Auto vars:     Size  Location     Type
  3191 ;;		None
  3192 ;; Return value:  Size  Location     Type
  3193 ;;                  1    wreg      void 
  3194 ;; Registers used:
  3195 ;;		wreg, fsr0l, fsr0h, status,2, status,0, pclath, cstack
  3196 ;; Tracked objects:
  3197 ;;		On entry : 0/0
  3198 ;;		On exit  : 0/0
  3199 ;;		Unchanged: 0/0
  3200 ;; Data sizes:     COMMON   BANK0   BANK1   BANK2
  3201 ;;      Params:         0       0       0       0
  3202 ;;      Locals:         0       0       0       0
  3203 ;;      Temps:          2       0       0       0
  3204 ;;      Totals:         2       0       0       0
  3205 ;;Total ram usage:        2 bytes
  3206 ;; Hardware stack levels used: 1
  3207 ;; Hardware stack levels required when called: 3
  3208 ;; This function calls:
  3209 ;;		_I2C1_SlaveAddrCallBack
  3210 ;;		_I2C1_SlaveClearIrq
  3211 ;;		_I2C1_SlaveIsAddr
  3212 ;;		_I2C1_SlaveIsRead
  3213 ;;		_I2C1_SlaveIsRxBufFull
  3214 ;;		_I2C1_SlaveIsTxBufEmpty
  3215 ;;		_I2C1_SlaveRdCallBack
  3216 ;;		_I2C1_SlaveReleaseClock
  3217 ;;		_I2C1_SlaveWrCallBack
  3218 ;; This function is called by:
  3219 ;;		_I2C1_Open
  3220 ;;		_INTERRUPT_InterruptManager
  3221 ;; This function uses a non-reentrant model
  3222 ;;
  3223                           
  3224     0040                     _I2C1_Isr:	
  3225                           ;psect for function _I2C1_Isr
  3226                           
  3227     0040                     i1l1400:	
  3228                           ;incstack = 0
  3229                           ; Regs used in _I2C1_Isr: [wreg-fsr0h+status,2+status,0+pclath+cstack]
  3230                           
  3231                           
  3232                           ;mcc_generated_files/i2c1_slave.c: 167:     I2C1_SlaveClearIrq();
  3233     0040  3182  2233  3180   	fcall	_I2C1_SlaveClearIrq
  3234     0043                     i1l1402:
  3235                           
  3236                           ;mcc_generated_files/i2c1_slave.c: 169:     if(I2C1_SlaveIsAddr())
  3237     0043  3181  21B6  3180   	fcall	_I2C1_SlaveIsAddr
  3238     0046  3A00               	xorlw	0
  3239     0047  1903               	skipnz
  3240     0048  284A               	goto	u26_21
  3241     0049  284B               	goto	u26_20
  3242     004A                     u26_21:
  3243     004A  2859               	goto	i1l1410
  3244     004B                     u26_20:
  3245     004B                     i1l1404:
  3246                           
  3247                           ;mcc_generated_files/i2c1_slave.c: 170:     {;mcc_generated_files/i2c1_slave.c: 171:    
      +                               if(I2C1_SlaveIsRead())
  3248     004B  3182  221D  3180   	fcall	_I2C1_SlaveIsRead
  3249     004E  3A00               	xorlw	0
  3250     004F  1903               	skipnz
  3251     0050  2852               	goto	u27_21
  3252     0051  2853               	goto	u27_20
  3253     0052                     u27_21:
  3254     0052  2856               	goto	i1l1408
  3255     0053                     u27_20:
  3256     0053                     i1l1406:
  3257                           
  3258                           ;mcc_generated_files/i2c1_slave.c: 172:         {;mcc_generated_files/i2c1_slave.c: 173:
      +                                       i2c1SlaveState = I2C1_ADDR_TX;
  3259     0053  3001               	movlw	1
  3260     0054  00F7               	movwf	_i2c1SlaveState	;volatile
  3261                           
  3262                           ;mcc_generated_files/i2c1_slave.c: 174:         }
  3263     0055  288F               	goto	i1l1434
  3264     0056                     i1l1408:
  3265                           
  3266                           ;mcc_generated_files/i2c1_slave.c: 176:         {;mcc_generated_files/i2c1_slave.c: 177:
      +                                       i2c1SlaveState = I2C1_ADDR_RX;
  3267     0056  3002               	movlw	2
  3268     0057  00F7               	movwf	_i2c1SlaveState	;volatile
  3269     0058  288F               	goto	i1l1434
  3270     0059                     i1l1410:
  3271                           
  3272                           ;mcc_generated_files/i2c1_slave.c: 181:     {;mcc_generated_files/i2c1_slave.c: 182:    
      +                               if(I2C1_SlaveIsRead())
  3273     0059  3182  221D  3180   	fcall	_I2C1_SlaveIsRead
  3274     005C  3A00               	xorlw	0
  3275     005D  1903               	skipnz
  3276     005E  2860               	goto	u28_21
  3277     005F  2861               	goto	u28_20
  3278     0060                     u28_21:
  3279     0060  2864               	goto	i1l1414
  3280     0061                     u28_20:
  3281     0061                     i1l1412:
  3282                           
  3283                           ;mcc_generated_files/i2c1_slave.c: 183:         {;mcc_generated_files/i2c1_slave.c: 184:
      +                                       i2c1SlaveState = I2C1_DATA_TX;
  3284     0061  3003               	movlw	3
  3285     0062  00F7               	movwf	_i2c1SlaveState	;volatile
  3286                           
  3287                           ;mcc_generated_files/i2c1_slave.c: 185:         }
  3288     0063  288F               	goto	i1l1434
  3289     0064                     i1l1414:
  3290                           
  3291                           ;mcc_generated_files/i2c1_slave.c: 187:         {;mcc_generated_files/i2c1_slave.c: 188:
      +                                       i2c1SlaveState = I2C1_DATA_RX;
  3292     0064  3004               	movlw	4
  3293     0065  00F7               	movwf	_i2c1SlaveState	;volatile
  3294     0066  288F               	goto	i1l1434
  3295     0067                     i1l1416:
  3296                           
  3297                           ;mcc_generated_files/i2c1_slave.c: 195:             I2C1_SlaveAddrCallBack();
  3298     0067  3181  218E  3180   	fcall	_I2C1_SlaveAddrCallBack
  3299     006A                     i1l1418:
  3300                           
  3301                           ;mcc_generated_files/i2c1_slave.c: 196:             if(I2C1_SlaveIsTxBufEmpty())
  3302     006A  3181  21AF  3180   	fcall	_I2C1_SlaveIsTxBufEmpty
  3303     006D  3A00               	xorlw	0
  3304     006E  1903               	skipnz
  3305     006F  2871               	goto	u29_21
  3306     0070  2872               	goto	u29_20
  3307     0071                     u29_21:
  3308     0071  28A5               	goto	i1l1436
  3309     0072                     u29_20:
  3310     0072                     i1l1420:
  3311                           
  3312                           ;mcc_generated_files/i2c1_slave.c: 197:             {;mcc_generated_files/i2c1_slave.c: 
      +                          198:                 I2C1_SlaveWrCallBack();
  3313     0072  3181  2174  3180   	fcall	_I2C1_SlaveWrCallBack
  3314     0075  28A5               	goto	i1l1436
  3315     0076                     i1l1422:
  3316                           
  3317                           ;mcc_generated_files/i2c1_slave.c: 202:             I2C1_SlaveAddrCallBack();
  3318     0076  3181  218E  3180   	fcall	_I2C1_SlaveAddrCallBack
  3319                           
  3320                           ;mcc_generated_files/i2c1_slave.c: 203:             break;
  3321     0079  28A5               	goto	i1l1436
  3322     007A                     i1l1424:
  3323                           
  3324                           ;mcc_generated_files/i2c1_slave.c: 205:             if(I2C1_SlaveIsTxBufEmpty())
  3325     007A  3181  21AF  3180   	fcall	_I2C1_SlaveIsTxBufEmpty
  3326     007D  3A00               	xorlw	0
  3327     007E  1903               	skipnz
  3328     007F  2881               	goto	u30_21
  3329     0080  2882               	goto	u30_20
  3330     0081                     u30_21:
  3331     0081  28A5               	goto	i1l1436
  3332     0082                     u30_20:
  3333     0082  2872               	goto	i1l1420
  3334     0083                     i1l1428:
  3335                           
  3336                           ;mcc_generated_files/i2c1_slave.c: 211:             if(I2C1_SlaveIsRxBufFull())
  3337     0083  3182  2226  3180   	fcall	_I2C1_SlaveIsRxBufFull
  3338     0086  3A00               	xorlw	0
  3339     0087  1903               	skipnz
  3340     0088  288A               	goto	u31_21
  3341     0089  288B               	goto	u31_20
  3342     008A                     u31_21:
  3343     008A  28A5               	goto	i1l1436
  3344     008B                     u31_20:
  3345     008B                     i1l1430:
  3346                           
  3347                           ;mcc_generated_files/i2c1_slave.c: 212:             {;mcc_generated_files/i2c1_slave.c: 
      +                          213:                 I2C1_SlaveRdCallBack();
  3348     008B  3181  2181  3180   	fcall	_I2C1_SlaveRdCallBack
  3349     008E  28A5               	goto	i1l1436
  3350     008F                     i1l1434:
  3351     008F  0877               	movf	_i2c1SlaveState,w	;volatile
  3352     0090  00F1               	movwf	??_I2C1_Isr
  3353     0091  01F2               	clrf	??_I2C1_Isr+1
  3354                           
  3355                           ; Switch on 2 bytes has been partitioned into a top level switch of size 1, and 1 sub-sw
      +                          itches
  3356                           ; Switch size 1, requested type "simple"
  3357                           ; Number of cases is 1, Range of values is 0 to 0
  3358                           ; switch strategies available:
  3359                           ; Name         Instructions Cycles
  3360                           ; simple_byte            4     3 (average)
  3361                           ; direct_byte            8     6 (fixed)
  3362                           ; jumptable            260     6 (fixed)
  3363                           ;	Chosen strategy is simple_byte
  3364     0092  0872               	movf	??_I2C1_Isr+1,w
  3365     0093  3A00               	xorlw	0	; case 0
  3366     0094  1903               	skipnz
  3367     0095  2897               	goto	i1l1676
  3368     0096  28A5               	goto	i1l1436
  3369     0097                     i1l1676:
  3370                           
  3371                           ; Switch size 1, requested type "simple"
  3372                           ; Number of cases is 4, Range of values is 1 to 4
  3373                           ; switch strategies available:
  3374                           ; Name         Instructions Cycles
  3375                           ; simple_byte           13     7 (average)
  3376                           ; direct_byte           17     9 (fixed)
  3377                           ; jumptable            263     9 (fixed)
  3378                           ;	Chosen strategy is simple_byte
  3379     0097  0871               	movf	??_I2C1_Isr,w
  3380     0098  3A01               	xorlw	1	; case 1
  3381     0099  1903               	skipnz
  3382     009A  2867               	goto	i1l1416
  3383     009B  3A03               	xorlw	3	; case 2
  3384     009C  1903               	skipnz
  3385     009D  2876               	goto	i1l1422
  3386     009E  3A01               	xorlw	1	; case 3
  3387     009F  1903               	skipnz
  3388     00A0  287A               	goto	i1l1424
  3389     00A1  3A07               	xorlw	7	; case 4
  3390     00A2  1903               	skipnz
  3391     00A3  2883               	goto	i1l1428
  3392     00A4  28A5               	goto	i1l1436
  3393     00A5                     i1l1436:
  3394                           
  3395                           ;mcc_generated_files/i2c1_slave.c: 219:     I2C1_SlaveReleaseClock();
  3396     00A5  3182  2230  3180   	fcall	_I2C1_SlaveReleaseClock
  3397     00A8                     i1l266:
  3398     00A8  0008               	return
  3399     00A9                     __end_of_I2C1_Isr:
  3400                           
  3401                           	psect	text27
  3402     0174                     __ptext27:	
  3403 ;; *************** function _I2C1_SlaveWrCallBack *****************
  3404 ;; Defined at:
  3405 ;;		line 250 in file "mcc_generated_files/i2c1_slave.c"
  3406 ;; Parameters:    Size  Location     Type
  3407 ;;		None
  3408 ;; Auto vars:     Size  Location     Type
  3409 ;;		None
  3410 ;; Return value:  Size  Location     Type
  3411 ;;                  1    wreg      void 
  3412 ;; Registers used:
  3413 ;;		wreg, status,2, status,0, pclath, cstack
  3414 ;; Tracked objects:
  3415 ;;		On entry : 0/0
  3416 ;;		On exit  : 0/0
  3417 ;;		Unchanged: 0/0
  3418 ;; Data sizes:     COMMON   BANK0   BANK1   BANK2
  3419 ;;      Params:         0       0       0       0
  3420 ;;      Locals:         0       0       0       0
  3421 ;;      Temps:          0       0       0       0
  3422 ;;      Totals:         0       0       0       0
  3423 ;;Total ram usage:        0 bytes
  3424 ;; Hardware stack levels used: 1
  3425 ;; Hardware stack levels required when called: 2
  3426 ;; This function calls:
  3427 ;;		NULL
  3428 ;;		_I2C1_SlaveDefWrInterruptHandler
  3429 ;; This function is called by:
  3430 ;;		_I2C1_Isr
  3431 ;; This function uses a non-reentrant model
  3432 ;;
  3433                           
  3434     0174                     _I2C1_SlaveWrCallBack:	
  3435                           ;psect for function _I2C1_SlaveWrCallBack
  3436                           
  3437     0174                     i1l1370:	
  3438                           ;incstack = 0
  3439                           ; Regs used in _I2C1_SlaveWrCallBack: [wreg+status,2+status,0+pclath+cstack]
  3440                           
  3441                           
  3442                           ;mcc_generated_files/i2c1_slave.c: 252:     if (I2C1_SlaveWrInterruptHandler)
  3443     0174  0140               	movlb	0	; select bank0
  3444     0175  0826               	movf	_I2C1_SlaveWrInterruptHandler,w
  3445     0176  0427               	iorwf	_I2C1_SlaveWrInterruptHandler+1,w
  3446     0177  1903               	btfsc	3,2
  3447     0178  297A               	goto	u23_21
  3448     0179  297B               	goto	u23_20
  3449     017A                     u23_21:
  3450     017A  2980               	goto	i1l286
  3451     017B                     u23_20:
  3452     017B                     i1l1372:
  3453                           
  3454                           ;mcc_generated_files/i2c1_slave.c: 253:     {;mcc_generated_files/i2c1_slave.c: 254:    
      +                               I2C1_SlaveWrInterruptHandler();
  3455     017B  0827               	movf	_I2C1_SlaveWrInterruptHandler+1,w
  3456     017C  008A               	movwf	10
  3457     017D  0826               	movf	_I2C1_SlaveWrInterruptHandler,w
  3458     017E  000A               	callw
  3459     017F  3181               	pagesel	$
  3460     0180                     i1l286:
  3461     0180  0008               	return
  3462     0181                     __end_of_I2C1_SlaveWrCallBack:
  3463                           
  3464                           	psect	text28
  3465     020E                     __ptext28:	
  3466 ;; *************** function _I2C1_SlaveDefWrInterruptHandler *****************
  3467 ;; Defined at:
  3468 ;;		line 258 in file "mcc_generated_files/i2c1_slave.c"
  3469 ;; Parameters:    Size  Location     Type
  3470 ;;		None
  3471 ;; Auto vars:     Size  Location     Type
  3472 ;;		None
  3473 ;; Return value:  Size  Location     Type
  3474 ;;                  1    wreg      void 
  3475 ;; Registers used:
  3476 ;;		wreg, status,2, status,0, pclath, cstack
  3477 ;; Tracked objects:
  3478 ;;		On entry : 0/0
  3479 ;;		On exit  : 0/0
  3480 ;;		Unchanged: 0/0
  3481 ;; Data sizes:     COMMON   BANK0   BANK1   BANK2
  3482 ;;      Params:         0       0       0       0
  3483 ;;      Locals:         0       0       0       0
  3484 ;;      Temps:          0       0       0       0
  3485 ;;      Totals:         0       0       0       0
  3486 ;;Total ram usage:        0 bytes
  3487 ;; Hardware stack levels used: 1
  3488 ;; Hardware stack levels required when called: 1
  3489 ;; This function calls:
  3490 ;;		i1_I2C1_SlaveSendTxData
  3491 ;; This function is called by:
  3492 ;;		_I2C1_Open
  3493 ;;		_I2C1_SlaveWrCallBack
  3494 ;; This function uses a non-reentrant model
  3495 ;;
  3496                           
  3497     020E                     _I2C1_SlaveDefWrInterruptHandler:	
  3498                           ;psect for function _I2C1_SlaveDefWrInterruptHandler
  3499                           
  3500     020E                     i1l1322:	
  3501                           ;incstack = 0
  3502                           ; Regs used in _I2C1_SlaveDefWrInterruptHandler: [wreg+status,2+status,0+pclath+cstack]
  3503                           
  3504                           
  3505                           ;mcc_generated_files/i2c1_slave.c: 259:     I2C1_SlaveSendTxData(i2c1WrData);
  3506     020E  0879               	movf	_i2c1WrData,w	;volatile
  3507     020F  3182  2213  3182   	fcall	i1_I2C1_SlaveSendTxData
  3508     0212                     i1l289:
  3509     0212  0008               	return
  3510     0213                     __end_of_I2C1_SlaveDefWrInterruptHandler:
  3511                           
  3512                           	psect	text29
  3513     0213                     __ptext29:	
  3514 ;; *************** function i1_I2C1_SlaveSendTxData *****************
  3515 ;; Defined at:
  3516 ;;		line 391 in file "mcc_generated_files/i2c1_slave.c"
  3517 ;; Parameters:    Size  Location     Type
  3518 ;;  data            1    wreg     unsigned char 
  3519 ;; Auto vars:     Size  Location     Type
  3520 ;;  data            1    0[COMMON] unsigned char 
  3521 ;; Return value:  Size  Location     Type
  3522 ;;                  1    wreg      void 
  3523 ;; Registers used:
  3524 ;;		wreg
  3525 ;; Tracked objects:
  3526 ;;		On entry : 0/0
  3527 ;;		On exit  : 0/0
  3528 ;;		Unchanged: 0/0
  3529 ;; Data sizes:     COMMON   BANK0   BANK1   BANK2
  3530 ;;      Params:         0       0       0       0
  3531 ;;      Locals:         1       0       0       0
  3532 ;;      Temps:          0       0       0       0
  3533 ;;      Totals:         1       0       0       0
  3534 ;;Total ram usage:        1 bytes
  3535 ;; Hardware stack levels used: 1
  3536 ;; This function calls:
  3537 ;;		Nothing
  3538 ;; This function is called by:
  3539 ;;		_I2C1_SlaveDefWrInterruptHandler
  3540 ;; This function uses a non-reentrant model
  3541 ;;
  3542                           
  3543     0213                     i1_I2C1_SlaveSendTxData:	
  3544                           ;psect for function i1_I2C1_SlaveSendTxData
  3545                           
  3546                           
  3547                           ;incstack = 0
  3548                           ; Regs used in i1_I2C1_SlaveSendTxData: [wreg]
  3549                           ;i1I2C1_SlaveSendTxData@data stored from wreg
  3550     0213  00F0               	movwf	i1I2C1_SlaveSendTxData@data
  3551     0214                     i1l1318:
  3552                           
  3553                           ;mcc_generated_files/i2c1_slave.c: 391: static __attribute__((inline)) void I2C1_SlaveSe
      +                          ndTxData(uint8_t data);mcc_generated_files/i2c1_slave.c: 392: {;mcc_generated_files/i2c1
      +                          _slave.c: 393:     SSP1BUF = data;
  3554     0214  0870               	movf	i1I2C1_SlaveSendTxData@data,w
  3555     0215  0143               	movlb	3	; select bank3
  3556     0216  008C               	movwf	12	;volatile
  3557     0217                     i1l365:
  3558     0217  0008               	return
  3559     0218                     __end_ofi1_I2C1_SlaveSendTxData:
  3560                           
  3561                           	psect	text30
  3562     0230                     __ptext30:	
  3563 ;; *************** function _I2C1_SlaveReleaseClock *****************
  3564 ;; Defined at:
  3565 ;;		line 361 in file "mcc_generated_files/i2c1_slave.c"
  3566 ;; Parameters:    Size  Location     Type
  3567 ;;		None
  3568 ;; Auto vars:     Size  Location     Type
  3569 ;;		None
  3570 ;; Return value:  Size  Location     Type
  3571 ;;                  1    wreg      void 
  3572 ;; Registers used:
  3573 ;;		None
  3574 ;; Tracked objects:
  3575 ;;		On entry : 0/0
  3576 ;;		On exit  : 0/0
  3577 ;;		Unchanged: 0/0
  3578 ;; Data sizes:     COMMON   BANK0   BANK1   BANK2
  3579 ;;      Params:         0       0       0       0
  3580 ;;      Locals:         0       0       0       0
  3581 ;;      Temps:          0       0       0       0
  3582 ;;      Totals:         0       0       0       0
  3583 ;;Total ram usage:        0 bytes
  3584 ;; Hardware stack levels used: 1
  3585 ;; This function calls:
  3586 ;;		Nothing
  3587 ;; This function is called by:
  3588 ;;		_I2C1_Isr
  3589 ;; This function uses a non-reentrant model
  3590 ;;
  3591                           
  3592     0230                     _I2C1_SlaveReleaseClock:	
  3593                           ;psect for function _I2C1_SlaveReleaseClock
  3594                           
  3595     0230                     i1l1382:	
  3596                           ;incstack = 0
  3597                           ; Regs used in _I2C1_SlaveReleaseClock: []
  3598                           
  3599                           
  3600                           ;mcc_generated_files/i2c1_slave.c: 363:     SSP1CON1bits.CKP = 1;
  3601     0230  0143               	movlb	3	; select bank3
  3602     0231  1610               	bsf	16,4	;volatile
  3603     0232                     i1l347:
  3604     0232  0008               	return
  3605     0233                     __end_of_I2C1_SlaveReleaseClock:
  3606                           
  3607                           	psect	text31
  3608     0181                     __ptext31:	
  3609 ;; *************** function _I2C1_SlaveRdCallBack *****************
  3610 ;; Defined at:
  3611 ;;		line 233 in file "mcc_generated_files/i2c1_slave.c"
  3612 ;; Parameters:    Size  Location     Type
  3613 ;;		None
  3614 ;; Auto vars:     Size  Location     Type
  3615 ;;		None
  3616 ;; Return value:  Size  Location     Type
  3617 ;;                  1    wreg      void 
  3618 ;; Registers used:
  3619 ;;		wreg, status,2, status,0, pclath, cstack
  3620 ;; Tracked objects:
  3621 ;;		On entry : 0/0
  3622 ;;		On exit  : 0/0
  3623 ;;		Unchanged: 0/0
  3624 ;; Data sizes:     COMMON   BANK0   BANK1   BANK2
  3625 ;;      Params:         0       0       0       0
  3626 ;;      Locals:         0       0       0       0
  3627 ;;      Temps:          0       0       0       0
  3628 ;;      Totals:         0       0       0       0
  3629 ;;Total ram usage:        0 bytes
  3630 ;; Hardware stack levels used: 1
  3631 ;; Hardware stack levels required when called: 2
  3632 ;; This function calls:
  3633 ;;		NULL
  3634 ;;		_I2C1_SlaveDefRdInterruptHandler
  3635 ;; This function is called by:
  3636 ;;		_I2C1_Isr
  3637 ;; This function uses a non-reentrant model
  3638 ;;
  3639                           
  3640     0181                     _I2C1_SlaveRdCallBack:	
  3641                           ;psect for function _I2C1_SlaveRdCallBack
  3642                           
  3643     0181                     i1l1378:	
  3644                           ;incstack = 0
  3645                           ; Regs used in _I2C1_SlaveRdCallBack: [wreg+status,2+status,0+pclath+cstack]
  3646                           
  3647                           
  3648                           ;mcc_generated_files/i2c1_slave.c: 235:     if (I2C1_SlaveRdInterruptHandler)
  3649     0181  0140               	movlb	0	; select bank0
  3650     0182  0828               	movf	_I2C1_SlaveRdInterruptHandler,w
  3651     0183  0429               	iorwf	_I2C1_SlaveRdInterruptHandler+1,w
  3652     0184  1903               	btfsc	3,2
  3653     0185  2987               	goto	u24_21
  3654     0186  2988               	goto	u24_20
  3655     0187                     u24_21:
  3656     0187  298D               	goto	i1l276
  3657     0188                     u24_20:
  3658     0188                     i1l1380:
  3659                           
  3660                           ;mcc_generated_files/i2c1_slave.c: 236:     {;mcc_generated_files/i2c1_slave.c: 237:    
      +                               I2C1_SlaveRdInterruptHandler();
  3661     0188  0829               	movf	_I2C1_SlaveRdInterruptHandler+1,w
  3662     0189  008A               	movwf	10
  3663     018A  0828               	movf	_I2C1_SlaveRdInterruptHandler,w
  3664     018B  000A               	callw
  3665     018C  3181               	pagesel	$
  3666     018D                     i1l276:
  3667     018D  0008               	return
  3668     018E                     __end_of_I2C1_SlaveRdCallBack:
  3669                           
  3670                           	psect	text32
  3671     0218                     __ptext32:	
  3672 ;; *************** function _I2C1_SlaveDefRdInterruptHandler *****************
  3673 ;; Defined at:
  3674 ;;		line 241 in file "mcc_generated_files/i2c1_slave.c"
  3675 ;; Parameters:    Size  Location     Type
  3676 ;;		None
  3677 ;; Auto vars:     Size  Location     Type
  3678 ;;		None
  3679 ;; Return value:  Size  Location     Type
  3680 ;;                  1    wreg      void 
  3681 ;; Registers used:
  3682 ;;		wreg, pclath, cstack
  3683 ;; Tracked objects:
  3684 ;;		On entry : 0/0
  3685 ;;		On exit  : 0/0
  3686 ;;		Unchanged: 0/0
  3687 ;; Data sizes:     COMMON   BANK0   BANK1   BANK2
  3688 ;;      Params:         0       0       0       0
  3689 ;;      Locals:         0       0       0       0
  3690 ;;      Temps:          0       0       0       0
  3691 ;;      Totals:         0       0       0       0
  3692 ;;Total ram usage:        0 bytes
  3693 ;; Hardware stack levels used: 1
  3694 ;; Hardware stack levels required when called: 1
  3695 ;; This function calls:
  3696 ;;		_I2C1_SlaveGetRxData
  3697 ;; This function is called by:
  3698 ;;		_I2C1_Open
  3699 ;;		_I2C1_SlaveRdCallBack
  3700 ;; This function uses a non-reentrant model
  3701 ;;
  3702                           
  3703     0218                     _I2C1_SlaveDefRdInterruptHandler:	
  3704                           ;psect for function _I2C1_SlaveDefRdInterruptHandler
  3705                           
  3706     0218                     i1l1320:	
  3707                           ;incstack = 0
  3708                           ; Regs used in _I2C1_SlaveDefRdInterruptHandler: [wreg+pclath+cstack]
  3709                           
  3710                           
  3711                           ;mcc_generated_files/i2c1_slave.c: 242:     i2c1RdData = I2C1_SlaveGetRxData();
  3712     0218  3182  2236  3182   	fcall	_I2C1_SlaveGetRxData
  3713     021B  00F8               	movwf	_i2c1RdData	;volatile
  3714     021C                     i1l279:
  3715     021C  0008               	return
  3716     021D                     __end_of_I2C1_SlaveDefRdInterruptHandler:
  3717                           
  3718                           	psect	text33
  3719     01AF                     __ptext33:	
  3720 ;; *************** function _I2C1_SlaveIsTxBufEmpty *****************
  3721 ;; Defined at:
  3722 ;;		line 381 in file "mcc_generated_files/i2c1_slave.c"
  3723 ;; Parameters:    Size  Location     Type
  3724 ;;		None
  3725 ;; Auto vars:     Size  Location     Type
  3726 ;;		None
  3727 ;; Return value:  Size  Location     Type
  3728 ;;                  1    wreg      _Bool 
  3729 ;; Registers used:
  3730 ;;		wreg, status,0
  3731 ;; Tracked objects:
  3732 ;;		On entry : 0/0
  3733 ;;		On exit  : 0/0
  3734 ;;		Unchanged: 0/0
  3735 ;; Data sizes:     COMMON   BANK0   BANK1   BANK2
  3736 ;;      Params:         0       0       0       0
  3737 ;;      Locals:         0       0       0       0
  3738 ;;      Temps:          0       0       0       0
  3739 ;;      Totals:         0       0       0       0
  3740 ;;Total ram usage:        0 bytes
  3741 ;; Hardware stack levels used: 1
  3742 ;; This function calls:
  3743 ;;		Nothing
  3744 ;; This function is called by:
  3745 ;;		_I2C1_Isr
  3746 ;; This function uses a non-reentrant model
  3747 ;;
  3748                           
  3749     01AF                     _I2C1_SlaveIsTxBufEmpty:	
  3750                           ;psect for function _I2C1_SlaveIsTxBufEmpty
  3751                           
  3752     01AF                     i1l1366:	
  3753                           ;incstack = 0
  3754                           ; Regs used in _I2C1_SlaveIsTxBufEmpty: [wreg+status,0]
  3755                           
  3756                           
  3757                           ;mcc_generated_files/i2c1_slave.c: 383:     return !SSP1STATbits.BF;
  3758     01AF  1003               	clrc
  3759     01B0  0143               	movlb	3	; select bank3
  3760     01B1  1C0F               	btfss	15,0	;volatile
  3761     01B2  1403               	setc
  3762     01B3  3000               	movlw	0
  3763     01B4  3D09               	addwfc	9,w
  3764     01B5                     i1l359:
  3765     01B5  0008               	return
  3766     01B6                     __end_of_I2C1_SlaveIsTxBufEmpty:
  3767                           
  3768                           	psect	text34
  3769     0226                     __ptext34:	
  3770 ;; *************** function _I2C1_SlaveIsRxBufFull *****************
  3771 ;; Defined at:
  3772 ;;		line 386 in file "mcc_generated_files/i2c1_slave.c"
  3773 ;; Parameters:    Size  Location     Type
  3774 ;;		None
  3775 ;; Auto vars:     Size  Location     Type
  3776 ;;		None
  3777 ;; Return value:  Size  Location     Type
  3778 ;;                  1    wreg      _Bool 
  3779 ;; Registers used:
  3780 ;;		wreg, status,2, status,0
  3781 ;; Tracked objects:
  3782 ;;		On entry : 0/0
  3783 ;;		On exit  : 0/0
  3784 ;;		Unchanged: 0/0
  3785 ;; Data sizes:     COMMON   BANK0   BANK1   BANK2
  3786 ;;      Params:         0       0       0       0
  3787 ;;      Locals:         0       0       0       0
  3788 ;;      Temps:          0       0       0       0
  3789 ;;      Totals:         0       0       0       0
  3790 ;;Total ram usage:        0 bytes
  3791 ;; Hardware stack levels used: 1
  3792 ;; This function calls:
  3793 ;;		Nothing
  3794 ;; This function is called by:
  3795 ;;		_I2C1_Isr
  3796 ;; This function uses a non-reentrant model
  3797 ;;
  3798                           
  3799     0226                     _I2C1_SlaveIsRxBufFull:	
  3800                           ;psect for function _I2C1_SlaveIsRxBufFull
  3801                           
  3802     0226                     i1l1374:	
  3803                           ;incstack = 0
  3804                           ; Regs used in _I2C1_SlaveIsRxBufFull: [wreg+status,2+status,0]
  3805                           
  3806                           
  3807                           ;mcc_generated_files/i2c1_slave.c: 388:     return SSP1STATbits.BF;
  3808     0226  0143               	movlb	3	; select bank3
  3809     0227  080F               	movf	15,w	;volatile
  3810     0228  3901               	andlw	1
  3811     0229                     i1l362:
  3812     0229  0008               	return
  3813     022A                     __end_of_I2C1_SlaveIsRxBufFull:
  3814                           
  3815                           	psect	text35
  3816     021D                     __ptext35:	
  3817 ;; *************** function _I2C1_SlaveIsRead *****************
  3818 ;; Defined at:
  3819 ;;		line 351 in file "mcc_generated_files/i2c1_slave.c"
  3820 ;; Parameters:    Size  Location     Type
  3821 ;;		None
  3822 ;; Auto vars:     Size  Location     Type
  3823 ;;		None
  3824 ;; Return value:  Size  Location     Type
  3825 ;;                  1    wreg      _Bool 
  3826 ;; Registers used:
  3827 ;;		wreg, status,2, status,0
  3828 ;; Tracked objects:
  3829 ;;		On entry : 0/0
  3830 ;;		On exit  : 0/0
  3831 ;;		Unchanged: 0/0
  3832 ;; Data sizes:     COMMON   BANK0   BANK1   BANK2
  3833 ;;      Params:         0       0       0       0
  3834 ;;      Locals:         0       0       0       0
  3835 ;;      Temps:          0       0       0       0
  3836 ;;      Totals:         0       0       0       0
  3837 ;;Total ram usage:        0 bytes
  3838 ;; Hardware stack levels used: 1
  3839 ;; This function calls:
  3840 ;;		Nothing
  3841 ;; This function is called by:
  3842 ;;		_I2C1_Isr
  3843 ;;		_I2C1_IsRead
  3844 ;; This function uses a non-reentrant model
  3845 ;;
  3846                           
  3847     021D                     _I2C1_SlaveIsRead:	
  3848                           ;psect for function _I2C1_SlaveIsRead
  3849                           
  3850     021D                     i1l1352:	
  3851                           ;incstack = 0
  3852                           ; Regs used in _I2C1_SlaveIsRead: [wreg+status,2+status,0]
  3853                           
  3854                           
  3855                           ;mcc_generated_files/i2c1_slave.c: 353:     return (SSP1STATbits.R_nW);
  3856     021D  0143               	movlb	3	; select bank3
  3857     021E  0C0F               	rrf	15,w	;volatile
  3858     021F  0C89               	rrf	9,f
  3859     0220  3901               	andlw	1
  3860     0221                     i1l341:
  3861     0221  0008               	return
  3862     0222                     __end_of_I2C1_SlaveIsRead:
  3863                           
  3864                           	psect	text36
  3865     01B6                     __ptext36:	
  3866 ;; *************** function _I2C1_SlaveIsAddr *****************
  3867 ;; Defined at:
  3868 ;;		line 346 in file "mcc_generated_files/i2c1_slave.c"
  3869 ;; Parameters:    Size  Location     Type
  3870 ;;		None
  3871 ;; Auto vars:     Size  Location     Type
  3872 ;;		None
  3873 ;; Return value:  Size  Location     Type
  3874 ;;                  1    wreg      _Bool 
  3875 ;; Registers used:
  3876 ;;		wreg, status,0
  3877 ;; Tracked objects:
  3878 ;;		On entry : 0/0
  3879 ;;		On exit  : 0/0
  3880 ;;		Unchanged: 0/0
  3881 ;; Data sizes:     COMMON   BANK0   BANK1   BANK2
  3882 ;;      Params:         0       0       0       0
  3883 ;;      Locals:         0       0       0       0
  3884 ;;      Temps:          0       0       0       0
  3885 ;;      Totals:         0       0       0       0
  3886 ;;Total ram usage:        0 bytes
  3887 ;; Hardware stack levels used: 1
  3888 ;; This function calls:
  3889 ;;		Nothing
  3890 ;; This function is called by:
  3891 ;;		_I2C1_Isr
  3892 ;; This function uses a non-reentrant model
  3893 ;;
  3894                           
  3895     01B6                     _I2C1_SlaveIsAddr:	
  3896                           ;psect for function _I2C1_SlaveIsAddr
  3897                           
  3898     01B6                     i1l1358:	
  3899                           ;incstack = 0
  3900                           ; Regs used in _I2C1_SlaveIsAddr: [wreg+status,0]
  3901                           
  3902                           
  3903                           ;mcc_generated_files/i2c1_slave.c: 348:     return !(SSP1STATbits.D_nA);
  3904     01B6  1003               	clrc
  3905     01B7  0143               	movlb	3	; select bank3
  3906     01B8  1E8F               	btfss	15,5	;volatile
  3907     01B9  1403               	setc
  3908     01BA  3000               	movlw	0
  3909     01BB  3D09               	addwfc	9,w
  3910     01BC                     i1l338:
  3911     01BC  0008               	return
  3912     01BD                     __end_of_I2C1_SlaveIsAddr:
  3913                           
  3914                           	psect	text37
  3915     0233                     __ptext37:	
  3916 ;; *************** function _I2C1_SlaveClearIrq *****************
  3917 ;; Defined at:
  3918 ;;		line 356 in file "mcc_generated_files/i2c1_slave.c"
  3919 ;; Parameters:    Size  Location     Type
  3920 ;;		None
  3921 ;; Auto vars:     Size  Location     Type
  3922 ;;		None
  3923 ;; Return value:  Size  Location     Type
  3924 ;;                  1    wreg      void 
  3925 ;; Registers used:
  3926 ;;		None
  3927 ;; Tracked objects:
  3928 ;;		On entry : 0/0
  3929 ;;		On exit  : 0/0
  3930 ;;		Unchanged: 0/0
  3931 ;; Data sizes:     COMMON   BANK0   BANK1   BANK2
  3932 ;;      Params:         0       0       0       0
  3933 ;;      Locals:         0       0       0       0
  3934 ;;      Temps:          0       0       0       0
  3935 ;;      Totals:         0       0       0       0
  3936 ;;Total ram usage:        0 bytes
  3937 ;; Hardware stack levels used: 1
  3938 ;; This function calls:
  3939 ;;		Nothing
  3940 ;; This function is called by:
  3941 ;;		_I2C1_Isr
  3942 ;; This function uses a non-reentrant model
  3943 ;;
  3944                           
  3945     0233                     _I2C1_SlaveClearIrq:	
  3946                           ;psect for function _I2C1_SlaveClearIrq
  3947                           
  3948     0233                     i1l1356:	
  3949                           ;incstack = 0
  3950                           ; Regs used in _I2C1_SlaveClearIrq: []
  3951                           
  3952                           
  3953                           ;mcc_generated_files/i2c1_slave.c: 358:     PIR1bits.SSP1IF = 0;
  3954     0233  014E               	movlb	14	; select bank14
  3955     0234  108D               	bcf	13,1	;volatile
  3956     0235                     i1l344:
  3957     0235  0008               	return
  3958     0236                     __end_of_I2C1_SlaveClearIrq:
  3959                           
  3960                           	psect	text38
  3961     018E                     __ptext38:	
  3962 ;; *************** function _I2C1_SlaveAddrCallBack *****************
  3963 ;; Defined at:
  3964 ;;		line 267 in file "mcc_generated_files/i2c1_slave.c"
  3965 ;; Parameters:    Size  Location     Type
  3966 ;;		None
  3967 ;; Auto vars:     Size  Location     Type
  3968 ;;		None
  3969 ;; Return value:  Size  Location     Type
  3970 ;;                  1    wreg      void 
  3971 ;; Registers used:
  3972 ;;		wreg, status,2, status,0, pclath, cstack
  3973 ;; Tracked objects:
  3974 ;;		On entry : 0/0
  3975 ;;		On exit  : 0/0
  3976 ;;		Unchanged: 0/0
  3977 ;; Data sizes:     COMMON   BANK0   BANK1   BANK2
  3978 ;;      Params:         0       0       0       0
  3979 ;;      Locals:         0       0       0       0
  3980 ;;      Temps:          0       0       0       0
  3981 ;;      Totals:         0       0       0       0
  3982 ;;Total ram usage:        0 bytes
  3983 ;; Hardware stack levels used: 1
  3984 ;; Hardware stack levels required when called: 2
  3985 ;; This function calls:
  3986 ;;		NULL
  3987 ;;		_I2C1_SlaveDefAddrInterruptHandler
  3988 ;; This function is called by:
  3989 ;;		_I2C1_Isr
  3990 ;; This function uses a non-reentrant model
  3991 ;;
  3992                           
  3993     018E                     _I2C1_SlaveAddrCallBack:	
  3994                           ;psect for function _I2C1_SlaveAddrCallBack
  3995                           
  3996     018E                     i1l1362:	
  3997                           ;incstack = 0
  3998                           ; Regs used in _I2C1_SlaveAddrCallBack: [wreg+status,2+status,0+pclath+cstack]
  3999                           
  4000                           
  4001                           ;mcc_generated_files/i2c1_slave.c: 269:     if (I2C1_SlaveAddrInterruptHandler) {
  4002     018E  0140               	movlb	0	; select bank0
  4003     018F  0824               	movf	_I2C1_SlaveAddrInterruptHandler,w
  4004     0190  0425               	iorwf	_I2C1_SlaveAddrInterruptHandler+1,w
  4005     0191  1903               	btfsc	3,2
  4006     0192  2994               	goto	u22_21
  4007     0193  2995               	goto	u22_20
  4008     0194                     u22_21:
  4009     0194  299A               	goto	i1l296
  4010     0195                     u22_20:
  4011     0195                     i1l1364:
  4012                           
  4013                           ;mcc_generated_files/i2c1_slave.c: 270:         I2C1_SlaveAddrInterruptHandler();
  4014     0195  0825               	movf	_I2C1_SlaveAddrInterruptHandler+1,w
  4015     0196  008A               	movwf	10
  4016     0197  0824               	movf	_I2C1_SlaveAddrInterruptHandler,w
  4017     0198  000A               	callw
  4018     0199  3181               	pagesel	$
  4019     019A                     i1l296:
  4020     019A  0008               	return
  4021     019B                     __end_of_I2C1_SlaveAddrCallBack:
  4022                           
  4023                           	psect	text39
  4024     01F9                     __ptext39:	
  4025 ;; *************** function _I2C1_SlaveDefAddrInterruptHandler *****************
  4026 ;; Defined at:
  4027 ;;		line 274 in file "mcc_generated_files/i2c1_slave.c"
  4028 ;; Parameters:    Size  Location     Type
  4029 ;;		None
  4030 ;; Auto vars:     Size  Location     Type
  4031 ;;		None
  4032 ;; Return value:  Size  Location     Type
  4033 ;;                  1    wreg      void 
  4034 ;; Registers used:
  4035 ;;		wreg, pclath, cstack
  4036 ;; Tracked objects:
  4037 ;;		On entry : 0/0
  4038 ;;		On exit  : 0/0
  4039 ;;		Unchanged: 0/0
  4040 ;; Data sizes:     COMMON   BANK0   BANK1   BANK2
  4041 ;;      Params:         0       0       0       0
  4042 ;;      Locals:         0       0       0       0
  4043 ;;      Temps:          0       0       0       0
  4044 ;;      Totals:         0       0       0       0
  4045 ;;Total ram usage:        0 bytes
  4046 ;; Hardware stack levels used: 1
  4047 ;; Hardware stack levels required when called: 1
  4048 ;; This function calls:
  4049 ;;		_I2C1_SlaveGetRxData
  4050 ;; This function is called by:
  4051 ;;		_I2C1_Open
  4052 ;;		_I2C1_SlaveAddrCallBack
  4053 ;; This function uses a non-reentrant model
  4054 ;;
  4055                           
  4056     01F9                     _I2C1_SlaveDefAddrInterruptHandler:	
  4057                           ;psect for function _I2C1_SlaveDefAddrInterruptHandler
  4058                           
  4059     01F9                     i1l1324:	
  4060                           ;incstack = 0
  4061                           ; Regs used in _I2C1_SlaveDefAddrInterruptHandler: [wreg+pclath+cstack]
  4062                           
  4063                           
  4064                           ;mcc_generated_files/i2c1_slave.c: 275:     i2c1SlaveAddr = I2C1_SlaveGetRxData();
  4065     01F9  3182  2236  3181   	fcall	_I2C1_SlaveGetRxData
  4066     01FC  0140               	movlb	0	; select bank0
  4067     01FD  00AC               	movwf	_i2c1SlaveAddr	;volatile
  4068     01FE                     i1l299:
  4069     01FE  0008               	return
  4070     01FF                     __end_of_I2C1_SlaveDefAddrInterruptHandler:
  4071                           
  4072                           	psect	text40
  4073     0236                     __ptext40:	
  4074 ;; *************** function _I2C1_SlaveGetRxData *****************
  4075 ;; Defined at:
  4076 ;;		line 396 in file "mcc_generated_files/i2c1_slave.c"
  4077 ;; Parameters:    Size  Location     Type
  4078 ;;		None
  4079 ;; Auto vars:     Size  Location     Type
  4080 ;;		None
  4081 ;; Return value:  Size  Location     Type
  4082 ;;                  1    wreg      unsigned char 
  4083 ;; Registers used:
  4084 ;;		wreg
  4085 ;; Tracked objects:
  4086 ;;		On entry : 0/0
  4087 ;;		On exit  : 0/0
  4088 ;;		Unchanged: 0/0
  4089 ;; Data sizes:     COMMON   BANK0   BANK1   BANK2
  4090 ;;      Params:         0       0       0       0
  4091 ;;      Locals:         0       0       0       0
  4092 ;;      Temps:          0       0       0       0
  4093 ;;      Totals:         0       0       0       0
  4094 ;;Total ram usage:        0 bytes
  4095 ;; Hardware stack levels used: 1
  4096 ;; This function calls:
  4097 ;;		Nothing
  4098 ;; This function is called by:
  4099 ;;		_I2C1_SlaveDefRdInterruptHandler
  4100 ;;		_I2C1_SlaveDefAddrInterruptHandler
  4101 ;;		_I2C1_Read
  4102 ;; This function uses a non-reentrant model
  4103 ;;
  4104                           
  4105     0236                     _I2C1_SlaveGetRxData:	
  4106                           ;psect for function _I2C1_SlaveGetRxData
  4107                           
  4108     0236                     i1l1314:	
  4109                           ;incstack = 0
  4110                           ; Regs used in _I2C1_SlaveGetRxData: [wreg]
  4111                           
  4112                           
  4113                           ;mcc_generated_files/i2c1_slave.c: 398:     return SSP1BUF;
  4114     0236  0143               	movlb	3	; select bank3
  4115     0237  080C               	movf	12,w	;volatile
  4116     0238                     i1l368:
  4117     0238  0008               	return
  4118     0239                     __end_of_I2C1_SlaveGetRxData:
  4119     007E                     btemp	set	126	;btemp
  4120     007E                     int$flags	set	126
  4121     007E                     wtemp0	set	126
  4122                           
  4123                           	psect	idloc
  4124                           
  4125                           ;Config register IDLOC0 @ 0x8000
  4126                           ;	unspecified, using default values
  4127     8000                     	org	32768
  4128     8000  3FFF               	dw	16383
  4129                           
  4130                           ;Config register IDLOC1 @ 0x8001
  4131                           ;	unspecified, using default values
  4132     8001                     	org	32769
  4133     8001  3FFF               	dw	16383
  4134                           
  4135                           ;Config register IDLOC2 @ 0x8002
  4136                           ;	unspecified, using default values
  4137     8002                     	org	32770
  4138     8002  3FFF               	dw	16383
  4139                           
  4140                           ;Config register IDLOC3 @ 0x8003
  4141                           ;	unspecified, using default values
  4142     8003                     	org	32771
  4143     8003  3FFF               	dw	16383
  4144                           
  4145                           	psect	config
  4146                           
  4147                           ;Config register CONFIG1 @ 0x8007
  4148                           ;	External Oscillator Mode Selection bits
  4149                           ;	FEXTOSC = OFF, Oscillator not enabled
  4150                           ;	Power-up Default Value for COSC bits
  4151                           ;	RSTOSC = HFINTOSC_32MHZ, HFINTOSC (32 MHz)
  4152                           ;	Clock Out Enable bit
  4153                           ;	CLKOUTEN = OFF, CLKOUT function is disabled; I/O function on RA4
  4154                           ;	VDD Range Analog Calibration Selection bit
  4155                           ;	VDDAR = HI, Internal analog systems are calibrated for operation between VDD = 2.3V - 
      +                          5.5V
  4156     8007                     	org	32775
  4157     8007  3FCD               	dw	16333
  4158                           
  4159                           ;Config register CONFIG2 @ 0x8008
  4160                           ;	Master Clear Enable bit
  4161                           ;	MCLRE = EXTMCLR, If LVP = 0, MCLR pin is MCLR; If LVP = 1, RA3 pin function is MCLR
  4162                           ;	Power-up Timer Selection bits
  4163                           ;	PWRTS = PWRT_OFF, PWRT is disabled
  4164                           ;	WDT Operating Mode bits
  4165                           ;	WDTE = OFF, WDT disabled; SEN is ignored
  4166                           ;	Brown-out Reset Enable bits
  4167                           ;	BOREN = ON, Brown-out Reset Enabled, SBOREN bit is ignored
  4168                           ;	Brown-out Reset Voltage Selection bit
  4169                           ;	BORV = LO, Brown-out Reset Voltage (VBOR) set to 1.9V
  4170                           ;	PPSLOCKED One-Way Set Enable bit
  4171                           ;	PPS1WAY = ON, The PPSLOCKED bit can be set once after an unlocking sequence is execute
      +                          d; once PPSLOCKED is set, all future changes to PPS registers are prevented
  4172                           ;	Stack Overflow/Underflow Reset Enable bit
  4173                           ;	STVREN = ON, Stack Overflow or Underflow will cause a reset
  4174     8008                     	org	32776
  4175     8008  3FE7               	dw	16359
  4176                           
  4177                           ;Config register CONFIG3 @ 0x8009
  4178                           ;	unspecified, using default values
  4179     8009                     	org	32777
  4180     8009  3FFF               	dw	16383
  4181                           
  4182                           ;Config register CONFIG4 @ 0x800A
  4183                           ;	Boot Block Size Selection bits
  4184                           ;	BBSIZE = BB512, 512 words boot block size
  4185                           ;	Boot Block Enable bit
  4186                           ;	BBEN = OFF, Boot Block is disabled
  4187                           ;	SAF Enable bit
  4188                           ;	SAFEN = OFF, SAF is disabled
  4189                           ;	Application Block Write Protection bit
  4190                           ;	WRTAPP = OFF, Application Block is not write-protected
  4191                           ;	Boot Block Write Protection bit
  4192                           ;	WRTB = OFF, Boot Block is not write-protected
  4193                           ;	Configuration Registers Write Protection bit
  4194                           ;	WRTC = OFF, Configuration Registers are not write-protected
  4195                           ;	Storage Area Flash (SAF) Write Protection bit
  4196                           ;	WRTSAF = OFF, SAF is not write-protected
  4197                           ;	Low Voltage Programming Enable bit
  4198                           ;	LVP = ON, Low Voltage programming enabled. MCLR/Vpp pin function is MCLR. MCLRE Config
      +                          uration bit is ignored.
  4199     800A                     	org	32778
  4200     800A  3FFF               	dw	16383
  4201                           
  4202                           ;Config register CONFIG5 @ 0x800B
  4203                           ;	User Program Flash Memory Code Protection bit
  4204                           ;	CP = OFF, User Program Flash Memory code protection is disabled
  4205     800B                     	org	32779
  4206     800B  3FFF               	dw	16383

Data Sizes:
    Strings     0
    Constant    0
    Data        0
    BSS         16
    Persistent  34
    Stack       0

Auto Spaces:
    Space          Size  Autos    Used
    COMMON           14      7      10
    BANK0            80      4      19
    BANK1            80      0       0
    BANK2            80      0       0

Pointer List with Targets:

    TMR0_SetInterruptHandler@InterruptHandler	PTR FTN()void  size(2) Largest target is 1
		 -> TMR0_DefaultInterruptHandler(), 

    TMR0_InterruptHandler	PTR FTN()void  size(2) Largest target is 1
		 -> TMR0_DefaultInterruptHandler(), NULL(), 

    I2C1_SlaveSetBusColIntHandler@handler	PTR FTN()void  size(2) Largest target is 1
		 -> I2C1_SlaveDefBusColInterruptHandler(), 

    I2C1_SlaveBusColInterruptHandler	PTR FTN()void  size(2) Largest target is 1
		 -> NULL(), I2C1_SlaveDefBusColInterruptHandler(), 

    I2C1_SlaveSetWrColIntHandler@handler	PTR FTN()void  size(2) Largest target is 1
		 -> I2C1_SlaveDefWrColInterruptHandler(), 

    I2C1_SlaveWrColInterruptHandler	PTR FTN()void  size(2) Largest target is 1
		 -> NULL(), I2C1_SlaveDefWrColInterruptHandler(), 

    I2C1_SlaveSetAddrIntHandler@handler	PTR FTN()void  size(2) Largest target is 1
		 -> I2C1_SlaveDefAddrInterruptHandler(), 

    I2C1_SlaveAddrInterruptHandler	PTR FTN()void  size(2) Largest target is 1
		 -> NULL(), I2C1_SlaveDefAddrInterruptHandler(), 

    I2C1_SlaveSetWriteIntHandler@handler	PTR FTN()void  size(2) Largest target is 1
		 -> I2C1_SlaveDefWrInterruptHandler(), 

    I2C1_SlaveWrInterruptHandler	PTR FTN()void  size(2) Largest target is 1
		 -> NULL(), I2C1_SlaveDefWrInterruptHandler(), 

    I2C1_SlaveSetReadIntHandler@handler	PTR FTN()void  size(2) Largest target is 1
		 -> I2C1_SlaveDefRdInterruptHandler(), 

    I2C1_SlaveRdInterruptHandler	PTR FTN()void  size(2) Largest target is 1
		 -> NULL(), I2C1_SlaveDefRdInterruptHandler(), 

    I2C1_SlaveSetIsrHandler@handler	PTR FTN()void  size(2) Largest target is 1
		 -> I2C1_Isr(), 

    MSSP1_InterruptHandler	PTR FTN()void  size(2) Largest target is 1
		 -> NULL(), I2C1_Isr(), 


Critical Paths under _main in COMMON

    _main->_I2C1_Write
    _TMR0_Initialize->_TMR0_SetInterruptHandler
    _I2C1_Write->_I2C1_SlaveSendTxData
    _I2C1_Open->_I2C1_SlaveSetAddrIntHandler
    _I2C1_Open->_I2C1_SlaveSetBusColIntHandler
    _I2C1_Open->_I2C1_SlaveSetIsrHandler
    _I2C1_Open->_I2C1_SlaveSetReadIntHandler
    _I2C1_Open->_I2C1_SlaveSetWrColIntHandler
    _I2C1_Open->_I2C1_SlaveSetWriteIntHandler
    _I2C1_Close->_I2C1_SlaveClose

Critical Paths under _INTERRUPT_InterruptManager in COMMON

    _INTERRUPT_InterruptManager->_I2C1_Isr
    _I2C1_SlaveDefWrInterruptHandler->i1_I2C1_SlaveSendTxData

Critical Paths under _main in BANK0

    None.

Critical Paths under _INTERRUPT_InterruptManager in BANK0

    None.

Critical Paths under _main in BANK1

    None.

Critical Paths under _INTERRUPT_InterruptManager in BANK1

    None.

Critical Paths under _main in BANK2

    None.

Critical Paths under _INTERRUPT_InterruptManager in BANK2

    None.

Call Graph Tables:

 ---------------------------------------------------------------------------------
 (Depth) Function   	        Calls       Base Space   Used Autos Params    Refs
 ---------------------------------------------------------------------------------
 (0) _main                                                 6     6      0    1148
                                              5 COMMON     2     2      0
                                              0 BANK0      4     4      0
                         _I2C1_Close
                          _I2C1_Open
                         _I2C1_Write
                  _SYSTEM_Initialize
 ---------------------------------------------------------------------------------
 (1) _SYSTEM_Initialize                                    0     0      0     121
                    _I2C1_Initialize
              _OSCILLATOR_Initialize
             _PIN_MANAGER_Initialize
                    _TMR0_Initialize
                     _WDT_Initialize
 ---------------------------------------------------------------------------------
 (2) _WDT_Initialize                                       0     0      0       0
 ---------------------------------------------------------------------------------
 (2) _TMR0_Initialize                                      0     0      0     121
           _TMR0_SetInterruptHandler
 ---------------------------------------------------------------------------------
 (3) _TMR0_SetInterruptHandler                             2     0      2     121
                                              3 COMMON     2     0      2
 ---------------------------------------------------------------------------------
 (2) _PIN_MANAGER_Initialize                               0     0      0       0
 ---------------------------------------------------------------------------------
 (2) _OSCILLATOR_Initialize                                0     0      0       0
 ---------------------------------------------------------------------------------
 (2) _I2C1_Initialize                                      1     1      0       0
                                              3 COMMON     1     1      0
 ---------------------------------------------------------------------------------
 (1) _I2C1_Write                                           1     1      0      44
                                              4 COMMON     1     1      0
               _I2C1_SlaveSendTxData
 ---------------------------------------------------------------------------------
 (2) _I2C1_SlaveSendTxData                                 1     1      0      22
                                              3 COMMON     1     1      0
 ---------------------------------------------------------------------------------
 (1) _I2C1_Open                                            0     0      0     770
                _I2C1_SlaveEnableIrq
                     _I2C1_SlaveOpen
        _I2C1_SlaveSetAddrIntHandler
      _I2C1_SlaveSetBusColIntHandler
            _I2C1_SlaveSetIsrHandler
        _I2C1_SlaveSetReadIntHandler
             _I2C1_SlaveSetSlaveAddr
             _I2C1_SlaveSetSlaveMask
       _I2C1_SlaveSetWrColIntHandler
       _I2C1_SlaveSetWriteIntHandler
 ---------------------------------------------------------------------------------
 (2) _I2C1_SlaveSetWriteIntHandler                         2     0      2     121
                                              3 COMMON     2     0      2
 ---------------------------------------------------------------------------------
 (2) _I2C1_SlaveSetWrColIntHandler                         2     0      2     121
                                              3 COMMON     2     0      2
 ---------------------------------------------------------------------------------
 (2) _I2C1_SlaveSetSlaveMask                               1     1      0      22
                                              3 COMMON     1     1      0
 ---------------------------------------------------------------------------------
 (2) _I2C1_SlaveSetSlaveAddr                               1     1      0      22
                                              3 COMMON     1     1      0
 ---------------------------------------------------------------------------------
 (2) _I2C1_SlaveSetReadIntHandler                          2     0      2     121
                                              3 COMMON     2     0      2
 ---------------------------------------------------------------------------------
 (2) _I2C1_SlaveSetIsrHandler                              2     0      2     121
                                              3 COMMON     2     0      2
 ---------------------------------------------------------------------------------
 (2) _I2C1_SlaveSetBusColIntHandler                        2     0      2     121
                                              3 COMMON     2     0      2
 ---------------------------------------------------------------------------------
 (2) _I2C1_SlaveSetAddrIntHandler                          2     0      2     121
                                              3 COMMON     2     0      2
 ---------------------------------------------------------------------------------
 (2) _I2C1_SlaveOpen                                       1     1      0       0
                                              3 COMMON     1     1      0
 ---------------------------------------------------------------------------------
 (2) _I2C1_SlaveEnableIrq                                  0     0      0       0
 ---------------------------------------------------------------------------------
 (1) _I2C1_Close                                           0     0      0       0
                    _I2C1_SlaveClose
 ---------------------------------------------------------------------------------
 (2) _I2C1_SlaveClose                                      1     1      0       0
                                              3 COMMON     1     1      0
 ---------------------------------------------------------------------------------
 Estimated maximum stack depth 3
 ---------------------------------------------------------------------------------
 (Depth) Function   	        Calls       Base Space   Used Autos Params    Refs
 ---------------------------------------------------------------------------------
 (4) _INTERRUPT_InterruptManager                           0     0      0      22
                                NULL *
                           _I2C1_Isr *
                           _TMR0_ISR
 ---------------------------------------------------------------------------------
 (5) _TMR0_ISR                                             0     0      0       0
                                NULL *
       _TMR0_DefaultInterruptHandler *
 ---------------------------------------------------------------------------------
 (6) _TMR0_DefaultInterruptHandler                         0     0      0       0
 ---------------------------------------------------------------------------------
 (5) _I2C1_Isr                                             2     2      0      22
                                              1 COMMON     2     2      0
             _I2C1_SlaveAddrCallBack
                 _I2C1_SlaveClearIrq
                   _I2C1_SlaveIsAddr
                   _I2C1_SlaveIsRead
              _I2C1_SlaveIsRxBufFull
             _I2C1_SlaveIsTxBufEmpty
               _I2C1_SlaveRdCallBack
             _I2C1_SlaveReleaseClock
               _I2C1_SlaveWrCallBack
 ---------------------------------------------------------------------------------
 (6) _I2C1_SlaveWrCallBack                                 0     0      0      22
                                NULL *
    _I2C1_SlaveDefWrInterruptHandler *
 ---------------------------------------------------------------------------------
 (7) _I2C1_SlaveDefWrInterruptHandler                      0     0      0      22
             i1_I2C1_SlaveSendTxData
 ---------------------------------------------------------------------------------
 (8) i1_I2C1_SlaveSendTxData                               1     1      0      22
                                              0 COMMON     1     1      0
 ---------------------------------------------------------------------------------
 (6) _I2C1_SlaveReleaseClock                               0     0      0       0
 ---------------------------------------------------------------------------------
 (6) _I2C1_SlaveRdCallBack                                 0     0      0       0
                                NULL *
    _I2C1_SlaveDefRdInterruptHandler *
 ---------------------------------------------------------------------------------
 (7) _I2C1_SlaveDefRdInterruptHandler                      0     0      0       0
                _I2C1_SlaveGetRxData
 ---------------------------------------------------------------------------------
 (6) _I2C1_SlaveIsTxBufEmpty                               0     0      0       0
 ---------------------------------------------------------------------------------
 (6) _I2C1_SlaveIsRxBufFull                                0     0      0       0
 ---------------------------------------------------------------------------------
 (6) _I2C1_SlaveIsRead                                     0     0      0       0
 ---------------------------------------------------------------------------------
 (6) _I2C1_SlaveIsAddr                                     0     0      0       0
 ---------------------------------------------------------------------------------
 (6) _I2C1_SlaveClearIrq                                   0     0      0       0
 ---------------------------------------------------------------------------------
 (6) _I2C1_SlaveAddrCallBack                               0     0      0       0
                                NULL *
  _I2C1_SlaveDefAddrInterruptHandler *
 ---------------------------------------------------------------------------------
 (7) _I2C1_SlaveDefAddrInterruptHandler                    0     0      0       0
                _I2C1_SlaveGetRxData
 ---------------------------------------------------------------------------------
 (8) _I2C1_SlaveGetRxData                                  0     0      0       0
 ---------------------------------------------------------------------------------
 (6) NULL(Fake)                                            0     0      0       0
 ---------------------------------------------------------------------------------
 Estimated maximum stack depth 8
 ---------------------------------------------------------------------------------

 Call Graph Graphs:

 _main (ROOT)
   _I2C1_Close
     _I2C1_SlaveClose
   _I2C1_Open
     _I2C1_SlaveEnableIrq
     _I2C1_SlaveOpen
     _I2C1_SlaveSetAddrIntHandler
     _I2C1_SlaveSetBusColIntHandler
     _I2C1_SlaveSetIsrHandler
     _I2C1_SlaveSetReadIntHandler
     _I2C1_SlaveSetSlaveAddr
     _I2C1_SlaveSetSlaveMask
     _I2C1_SlaveSetWrColIntHandler
     _I2C1_SlaveSetWriteIntHandler
   _I2C1_Write
     _I2C1_SlaveSendTxData
   _SYSTEM_Initialize
     _I2C1_Initialize
     _OSCILLATOR_Initialize
     _PIN_MANAGER_Initialize
     _TMR0_Initialize
       _TMR0_SetInterruptHandler
     _WDT_Initialize

 _INTERRUPT_InterruptManager (ROOT)
   NULL(Fake) *
   _I2C1_Isr *
     _I2C1_SlaveAddrCallBack
       NULL(Fake) *
       _I2C1_SlaveDefAddrInterruptHandler *
         _I2C1_SlaveGetRxData
     _I2C1_SlaveClearIrq
     _I2C1_SlaveIsAddr
     _I2C1_SlaveIsRead
     _I2C1_SlaveIsRxBufFull
     _I2C1_SlaveIsTxBufEmpty
     _I2C1_SlaveRdCallBack
       NULL(Fake) *
       _I2C1_SlaveDefRdInterruptHandler *
         _I2C1_SlaveGetRxData
     _I2C1_SlaveReleaseClock
     _I2C1_SlaveWrCallBack
       NULL(Fake) *
       _I2C1_SlaveDefWrInterruptHandler *
         i1_I2C1_SlaveSendTxData
   _TMR0_ISR *
     NULL(Fake) *
     _TMR0_DefaultInterruptHandler *

 Address spaces:
Name               Size   Autos  Total    Cost      Usage
BIGRAM              F0      0       0       0        0.0%
NULL                 0      0       0       0        0.0%
CODE                 0      0       0       0        0.0%
BITCOMMON            E      0       0       1        0.0%
BITSFR0              0      0       0       1        0.0%
SFR0                 0      0       0       1        0.0%
COMMON               E      7       A       2       71.4%
BITSFR1              0      0       0       2        0.0%
SFR1                 0      0       0       2        0.0%
BITSFR2              0      0       0       3        0.0%
SFR2                 0      0       0       3        0.0%
STACK                0      0       0       3        0.0%
BITBANK0            50      0       0       4        0.0%
BITSFR3              0      0       0       4        0.0%
SFR3                 0      0       0       4        0.0%
BANK0               50      4      13       5       23.8%
BITSFR4              0      0       0       5        0.0%
SFR4                 0      0       0       5        0.0%
BITBANK1            50      0       0       6        0.0%
BITSFR5              0      0       0       6        0.0%
SFR5                 0      0       0       6        0.0%
BANK1               50      0       0       7        0.0%
BITSFR6              0      0       0       7        0.0%
SFR6                 0      0       0       7        0.0%
BITBANK2            50      0       0       8        0.0%
BITSFR7              0      0       0       8        0.0%
SFR7                 0      0       0       8        0.0%
BANK2               50      0       0       9        0.0%
BITSFR8              0      0       0       9        0.0%
SFR8                 0      0       0       9        0.0%
BITSFR9              0      0       0      10        0.0%
SFR9                 0      0       0      10        0.0%
ABS                  0      0      1D      10        0.0%
BITSFR10             0      0       0      11        0.0%
SFR10                0      0       0      11        0.0%
DATA                 0      0      1D      11        0.0%
BITSFR11             0      0       0      12        0.0%
SFR11                0      0       0      12        0.0%
BITSFR12             0      0       0      13        0.0%
SFR12                0      0       0      13        0.0%
BITSFR13             0      0       0      14        0.0%
SFR13                0      0       0      14        0.0%
BITSFR14             0      0       0      15        0.0%
SFR14                0      0       0      15        0.0%
BITSFR15             0      0       0      16        0.0%
SFR15                0      0       0      16        0.0%
BITSFR16             0      0       0      17        0.0%
SFR16                0      0       0      17        0.0%
BITSFR17             0      0       0      18        0.0%
SFR17                0      0       0      18        0.0%
BITSFR18             0      0       0      19        0.0%
SFR18                0      0       0      19        0.0%
BITSFR19             0      0       0      20        0.0%
SFR19                0      0       0      20        0.0%
BITSFR20             0      0       0      21        0.0%
SFR20                0      0       0      21        0.0%
BITSFR21             0      0       0      22        0.0%
SFR21                0      0       0      22        0.0%
BITSFR22             0      0       0      23        0.0%
SFR22                0      0       0      23        0.0%
BITSFR23             0      0       0      24        0.0%
SFR23                0      0       0      24        0.0%
BITSFR24             0      0       0      25        0.0%
SFR24                0      0       0      25        0.0%
BITSFR25             0      0       0      26        0.0%
SFR25                0      0       0      26        0.0%
BITSFR26             0      0       0      27        0.0%
SFR26                0      0       0      27        0.0%
BITSFR27             0      0       0      28        0.0%
SFR27                0      0       0      28        0.0%
BITSFR28             0      0       0      29        0.0%
SFR28                0      0       0      29        0.0%
BITSFR29             0      0       0      30        0.0%
SFR29                0      0       0      30        0.0%
BITSFR30             0      0       0      31        0.0%
SFR30                0      0       0      31        0.0%
BITSFR31             0      0       0      32        0.0%
SFR31                0      0       0      32        0.0%
BITSFR32             0      0       0      33        0.0%
SFR32                0      0       0      33        0.0%
BITSFR33             0      0       0      34        0.0%
SFR33                0      0       0      34        0.0%
BITSFR34             0      0       0      35        0.0%
SFR34                0      0       0      35        0.0%
BITSFR35             0      0       0      36        0.0%
SFR35                0      0       0      36        0.0%
BITSFR36             0      0       0      37        0.0%
SFR36                0      0       0      37        0.0%
BITSFR37             0      0       0      38        0.0%
SFR37                0      0       0      38        0.0%
BITSFR38             0      0       0      39        0.0%
SFR38                0      0       0      39        0.0%
BITSFR39             0      0       0      40        0.0%
SFR39                0      0       0      40        0.0%
BITSFR40             0      0       0      41        0.0%
SFR40                0      0       0      41        0.0%
BITSFR41             0      0       0      42        0.0%
SFR41                0      0       0      42        0.0%
BITSFR42             0      0       0      43        0.0%
SFR42                0      0       0      43        0.0%
BITSFR43             0      0       0      44        0.0%
SFR43                0      0       0      44        0.0%
BITSFR44             0      0       0      45        0.0%
SFR44                0      0       0      45        0.0%
BITSFR45             0      0       0      46        0.0%
SFR45                0      0       0      46        0.0%
BITSFR46             0      0       0      47        0.0%
SFR46                0      0       0      47        0.0%
BITSFR47             0      0       0      48        0.0%
SFR47                0      0       0      48        0.0%
BITSFR48             0      0       0      49        0.0%
SFR48                0      0       0      49        0.0%
BITSFR49             0      0       0      50        0.0%
SFR49                0      0       0      50        0.0%
BITSFR50             0      0       0      51        0.0%
SFR50                0      0       0      51        0.0%
BITSFR51             0      0       0      52        0.0%
SFR51                0      0       0      52        0.0%
BITSFR52             0      0       0      53        0.0%
SFR52                0      0       0      53        0.0%
BITSFR53             0      0       0      54        0.0%
SFR53                0      0       0      54        0.0%
BITSFR54             0      0       0      55        0.0%
SFR54                0      0       0      55        0.0%
BITSFR55             0      0       0      56        0.0%
SFR55                0      0       0      56        0.0%
BITSFR56             0      0       0      57        0.0%
SFR56                0      0       0      57        0.0%
BITSFR57             0      0       0      58        0.0%
SFR57                0      0       0      58        0.0%
BITSFR58             0      0       0      59        0.0%
SFR58                0      0       0      59        0.0%
BITSFR59             0      0       0      60        0.0%
SFR59                0      0       0      60        0.0%
BITSFR60             0      0       0      61        0.0%
SFR60                0      0       0      61        0.0%
BITSFR61             0      0       0      62        0.0%
SFR61                0      0       0      62        0.0%
BITSFR62             0      0       0      63        0.0%
SFR62                0      0       0      63        0.0%
BITSFR63             0      0       0      64        0.0%
SFR63                0      0       0      64        0.0%


Microchip Technology PIC Macro Assembler V2.41 build 20230208172133 
Symbol Table                                                                                   Sun Apr  2 10:57:55 2023

                 ??_I2C1_SlaveAddrCallBack 0070                             I2C1_Write@data 0074  
                                       l33 0156                                         l36 01CE  
                                       l39 022C                                         l78 0132  
                                      l302 01E0                                        l223 01A4  
                                      l312 01F2                                        l226 00E1  
                                      l323 0173                                        l235 01D4  
                                      l403 0146                                        l332 0208  
                                      l229 0225                                        l326 01AE  
                                      l335 022F                                        l272 01E6  
                                      l329 020D                                        l425 01C8  
                                      l282 01DA                                        l292 01F8  
                                      l269 01EC                                        l365 0203  
                                      u420 016B                                        u421 016A  
                 __end_of_I2C1_SlaveIsAddr 01BD                                        u435 00EF  
                                      u447 0108                   __end_of_I2C1_SlaveIsRead 0222  
                                      wreg 0009                                       l1600 01E1  
                                     l1520 019E                                       l1610 01A8  
                                     l1602 01F3                                       l1522 01A2  
                                     l1530 0115                                       l1612 01AC  
                                     l1604 01DB                                       l1524 01A3  
                                     l1540 011E                                       l1532 0119  
                                     l1516 01C3                                       l1620 0150  
                                     l1614 01AD                                       l1606 022D  
                                     l1630 01D0                                       l1518 019B  
                                     l1550 0127                                       l1542 011F  
                                     l1534 011B                                       l1526 0110  
                                     l1622 0153                                       l1608 01A5  
                                     l1624 00A9                                       l1616 0200  
                                     l1560 01CB                                       l1552 0129  
                                     l1544 0121                                       l1536 011C  
                                     l1528 0113                                       l1640 00E9  
                         __end_of_I2C1_Isr 00A9                                       l1626 00DE  
                                     l1562 01CD                                       l1554 012C  
                                     l1546 0123                                       l1538 011D  
                                     l1570 0139                                       l1618 0147  
                                     l1650 00FB                                       l1642 00EC  
                                     l1634 00E2                                       l1628 0222  
                                     l1580 016B                                       l1556 012F  
                                     l1548 0125                                       l1572 013B  
                                     l1564 022A                                       l1652 0100  
                                     l1644 00F4                                       l1636 00E5  
                                     l1582 016D                                       l1590 020A  
                                     l1558 01C9                                       l1574 013C  
                                     l1566 0133                                       l1654 0103  
                                     l1646 00F7                                       l1638 00E5  
                                     l1584 0171                                       l1592 0205  
                                     l1576 0143                                       l1568 0138  
                                     l1648 00F8                                       l1586 0172  
                                     l1578 0166                                       l1594 01E7  
                                     l1596 01ED                                       l1598 01D5  
                                     _LATA 0018                                       _LATC 001A  
                                     _WPUA 1F39                                       _WPUC 1F4F  
                                     _main 00E2         I2C1_SlaveSetAddrIntHandler@handler 0073  
                                     fsr0h 0005                                       indf0 0000  
                                     fsr0l 0004                                       btemp 007E  
                                     start 0031                                 _i2c1RdData 0078  
                               _i2c1WrData 0079         I2C1_SlaveSetReadIntHandler@handler 0073  
             _I2C1_SlaveRdInterruptHandler 0028               _I2C1_SlaveWrInterruptHandler 0026  
                         ??_I2C1_SlaveOpen 0073                    __end_of_TMR0_Initialize 0147  
           ??_TMR0_DefaultInterruptHandler 0070              __end_of_OSCILLATOR_Initialize 01CF  
                        __end_of_I2C1_Open 00E2                                      ?_main 0070  
                                    i1l110 0013                                      i1l113 0026  
                                    i1l117 002F                                      i1l118 002F  
                                    i1l341 0221                                      i1l422 0165  
                                    i1l344 0235                                      i1l338 01BC  
                                    i1l362 0229                                      i1l266 00A8  
                                    i1l347 0232                                      i1l276 018D  
                                    i1l428 0239                                      i1l365 0217  
                                    i1l286 0180                                      i1l359 01B5  
                                    i1l279 021C                                      i1l368 0238  
                                    i1l296 019A                                      i1l289 0212  
                                    i1l299 01FE                                      _OSCEN 0891  
                                    u22_20 0195                                      u30_20 0082  
                                    u22_21 0194                                      u30_21 0081  
                                    u23_20 017B                                      u31_20 008B  
                                    u23_21 017A                                      u31_21 008A  
                                    u24_20 0188                                      u32_20 000B  
                                    u24_21 0187                                      u32_21 000A  
                                    u25_20 0160                                      u33_20 000F  
                                    _TMR0H 059D                                      u25_21 015F  
                                    u33_21 000E                                      _TMR0L 059C  
                                    u26_20 004B                                      u34_20 0017  
                                    u26_21 004A                                      u34_21 0016  
                                    u27_20 0053                                      u35_20 001B  
                                    u27_21 0052                                      u35_21 001A  
                                    _PORTA 000C                                      _PORTC 000E  
                                    u28_20 0061                                      u36_20 001F  
                                    u28_21 0060                                      u36_21 001E  
                                    u29_20 0072                                      u37_20 002A  
                                    u29_21 0071                                      u37_21 0029  
                                    u38_20 002E                                      u38_21 002D  
                                    _TRISA 0012                                      _TRISC 0014  
                ?_TMR0_SetInterruptHandler 0073                          ??_I2C1_Initialize 0073  
                         __end_of_TMR0_ISR 0166             I2C1_SlaveSetSlaveMask@maskAddr 0073  
                           _WDT_Initialize 022A                             _i2c1SlaveState 0077  
                                    main@v 002E                                      pclath 000A  
                                    status 0003                                      wtemp0 007E  
                             ??_I2C1_Close 0074                               ??_I2C1_Write 0074  
                          __initialization 0032                               __end_of_main 0110  
              ?_INTERRUPT_InterruptManager 0070                          ??_I2C1_SlaveClose 0073  
                                   ??_main 0075                         _I2C1_SlaveClearIrq 0233  
                   __end_of_WDT_Initialize 022D                         __end_of_I2C1_Close 0226  
                      ?_I2C1_SlaveClearIrq 0070                    ?_I2C1_SlaveReleaseClock 0070  
                       __end_of_I2C1_Write 01D5                                     _ANSELA 1F38  
                                   _ANSELC 1F4E                                     _T0CON0 059E  
                                   _T0CON1 059F                                     _RC0PPS 1F20  
                                   _RC1PPS 1F21                                     i1l1320 0218  
                                   i1l1400 0040                                     i1l1314 0236  
                                   i1l1322 020E                                     i1l1410 0059  
                                   i1l1402 0043                                     i1l1324 01F9  
                                   i1l1420 0072                                     i1l1412 0061  
                                   i1l1404 004B                                     i1l1318 0214  
                                   i1l1430 008B                                     i1l1422 0076  
                                   i1l1414 0064                                     i1l1406 0053  
                                   i1l1352 021D                                     i1l1424 007A  
                                   i1l1416 0067                                     i1l1408 0056  
                                   _ODCONA 1F3A                                     i1l1362 018E  
                                   i1l1370 0174                                     i1l1418 006A  
                                   i1l1434 008F                                     i1l1450 001B  
                                   i1l1442 0006                                     _ODCONC 1F50  
                                   i1l1364 0195                                     i1l1356 0233  
                                   i1l1380 0188                                     i1l1372 017B  
                                   i1l1428 0083                                     i1l1436 00A5  
                                   i1l1452 001F                                     i1l1444 000B  
                                   i1l1358 01B6                                     i1l1374 0226  
                                   i1l1366 01AF                                     i1l1382 0230  
                                   i1l1390 0157                                     i1l1454 002A  
                                   i1l1446 000F                                     i1l1392 0159  
                                   i1l1448 0017                                     i1l1378 0181  
                                   i1l1394 0160                                     i1l1676 0097  
                                   _INLVLA 1F3C                                     _INLVLC 1F52  
                                   _OSCFRQ 0893                                     _WDTCON 080C  
                     ??_I2C1_SlaveClearIrq 0070                           ?_TMR0_Initialize 0070  
                                ?_I2C1_Isr 0070                    ?_I2C1_SlaveSetSlaveAddr 0070  
                  ?_I2C1_SlaveSetSlaveMask 0070       __end_of_I2C1_SlaveSetWrColIntHandler 01E1  
             _I2C1_SlaveSetWrColIntHandler 01DB       I2C1_SlaveSetBusColIntHandler@handler 0073  
                          ?_WDT_Initialize 0070             __end_of_I2C1_SlaveReleaseClock 0233  
 TMR0_SetInterruptHandler@InterruptHandler 0073                     _I2C1_SlaveAddrCallBack 018E  
                        _SYSTEM_Initialize 0147                    __end_of__initialization 003D  
      I2C1_SlaveSetWrColIntHandler@handler 0073                         ?_SYSTEM_Initialize 0070  
                           __pcstackCOMMON 0070                        ??_SYSTEM_Initialize 0075  
                                ?_TMR0_ISR 0070             __end_of_I2C1_SlaveSetSlaveAddr 020E  
           __end_of_I2C1_SlaveSetSlaveMask 0209                                 ??_I2C1_Isr 0071  
                        ?_I2C1_SlaveIsAddr 0070                          ?_I2C1_SlaveIsRead 0070  
                       ??_I2C1_SlaveIsAddr 0070                         ??_I2C1_SlaveIsRead 0070  
                __end_of_SYSTEM_Initialize 0157                                 __pbssBANK0 0020  
                      _I2C1_SlaveEnableIrq 022D                        _I2C1_SlaveGetRxData 0236  
                    _I2C1_SlaveIsRxBufFull 0226                                 __pmaintext 00E2  
            ?_I2C1_SlaveSetWriteIntHandler 0073           __end_of_TMR0_SetInterruptHandler 01C9  
                               ??_TMR0_ISR 0070                                 __pintentry 0004  
                          _I2C1_Initialize 019B                       ?_I2C1_SlaveEnableIrq 0070  
                     ?_I2C1_SlaveGetRxData 0070                                  _I2C1_Open 00A9  
                                  _OSCTUNE 0892                                    _SSP1ADD 018D  
                                  _SLRCONA 1F3B                                    _SLRCONC 1F51  
                                  _SSP1BUF 018C                                    _SSP1MSK 018E  
                 ?_I2C1_SlaveSetIsrHandler 0073             ?_I2C1_SlaveSetBusColIntHandler 0073  
                          _I2C1_SlaveClose 01A5                      ??_I2C1_SlaveEnableIrq 0073  
                    ??_I2C1_SlaveGetRxData 0070                                    __ptext1 0147  
                                  __ptext2 022A                                    __ptext3 0133  
                                  __ptext4 01C3                                    __ptext5 0110  
                                  __ptext6 01C9                                    __ptext7 019B  
                                  __ptext8 01CF                                    __ptext9 01FF  
           _I2C1_SlaveAddrInterruptHandler 0024                      _OSCILLATOR_Initialize 01C9  
                 ??i1_I2C1_SlaveSendTxData 0070            I2C1_SlaveSetSlaveAddr@slaveAddr 0073  
                 ??_PIN_MANAGER_Initialize 0073                                 ?_I2C1_Open 0070  
                 ??_I2C1_SlaveIsTxBufEmpty 0070                                    main@TAG 002D  
                                  clrloop0 01BE                       end_of_initialization 003D  
                   ?_I2C1_SlaveIsRxBufFull 0070            _I2C1_SlaveWrColInterruptHandler 0020  
                  __end_of_I2C1_Initialize 01A5               __end_of_I2C1_SlaveRdCallBack 018E  
           ??_I2C1_SlaveSetWriteIntHandler 0075                           ??_WDT_Initialize 0073  
                 _TMR0_SetInterruptHandler 01C3            __end_of_I2C1_SlaveSetIsrHandler 01ED  
                  ?_I2C1_SlaveAddrCallBack 0070             I2C1_SlaveSetIsrHandler@handler 0073  
                  __end_of_I2C1_SlaveClose 01AF                              _i2c1SlaveAddr 002C  
                   ?_OSCILLATOR_Initialize 0070             __end_of_I2C1_SlaveAddrCallBack 019B  
             __end_of_I2C1_SlaveSendTxData 0204                        start_initialization 0032  
                              ??_I2C1_Open 0075               __end_of_I2C1_SlaveWrCallBack 0181  
                 I2C1_SlaveSendTxData@data 0073                           ?_I2C1_Initialize 0070  
  __end_of_I2C1_SlaveDefRdInterruptHandler 021D          ??_I2C1_SlaveDefRdInterruptHandler 0070  
         ?_I2C1_SlaveDefRdInterruptHandler 0070            _I2C1_SlaveDefRdInterruptHandler 0218  
  __end_of_I2C1_SlaveDefWrInterruptHandler 0213          ??_I2C1_SlaveDefWrInterruptHandler 0071  
         ?_I2C1_SlaveDefWrInterruptHandler 0070            _I2C1_SlaveDefWrInterruptHandler 020E  
                              __pbssCOMMON 0077                                  ___latbits 0000  
                            __pcstackBANK0 002D                       _I2C1_SlaveRdCallBack 0181  
               i1I2C1_SlaveSendTxData@data 0070               ?_I2C1_SlaveSetAddrIntHandler 0073  
                         ?_I2C1_SlaveClose 0070                      _TMR0_InterruptHandler 0031  
                                __pnvBANK0 0031                     i1_I2C1_SlaveSendTxData 0213  
                   _PIN_MANAGER_Initialize 0110                     _MSSP1_InterruptHandler 002A  
                   _I2C1_SlaveIsTxBufEmpty 01AF               ?_I2C1_SlaveSetReadIntHandler 0073  
          ??_I2C1_SlaveSetBusColIntHandler 0075                                   _I2C1_Isr 0040  
             ??_INTERRUPT_InterruptManager 0073                   ??_I2C1_SlaveReleaseClock 0070  
      __end_of_I2C1_SlaveSetAddrIntHandler 01F9                _I2C1_SlaveSetAddrIntHandler 01F3  
                           _I2C1_SlaveOpen 0166                      ?_I2C1_SlaveRdCallBack 0070  
                  ??_I2C1_SlaveIsRxBufFull 0070              ?_I2C1_SlaveSetWrColIntHandler 0073  
            ??_I2C1_SlaveSetAddrIntHandler 0075                          ??_TMR0_Initialize 0075  
                                 _LATAbits 0018                                  clear_ram0 01BD  
                                 _PIE0bits 0716                                   _PIE1bits 0717  
                 ??_I2C1_SlaveSetSlaveAddr 0073        __end_of_I2C1_SlaveSetReadIntHandler 01E7  
              _I2C1_SlaveSetReadIntHandler 01E1                                 _I2C1_Close 0222  
                 ??_I2C1_SlaveSetSlaveMask 0073                __end_of_I2C1_SlaveEnableIrq 0230  
               ??_TMR0_SetInterruptHandler 0075                                   _PIR0bits 070C  
              __end_of_I2C1_SlaveGetRxData 0239                                   _PIR1bits 070D  
                     _I2C1_SlaveSendTxData 01FF                                 _I2C1_Write 01CF  
                     _I2C1_SlaveWrCallBack 0174                                   _SSP1CON1 0190  
                                 _SSP1CON2 0191                                   _TMR0_ISR 0157  
                                 _SSP1STAT 018F              ??_I2C1_SlaveSetReadIntHandler 0075  
                   __end_of_I2C1_SlaveOpen 0174           _I2C1_SlaveBusColInterruptHandler 0022  
       _I2C1_SlaveDefWrColInterruptHandler 0000  __end_of_I2C1_SlaveDefAddrInterruptHandler 01FF  
      ??_I2C1_SlaveDefAddrInterruptHandler 0070         ?_I2C1_SlaveDefAddrInterruptHandler 0070  
        _I2C1_SlaveDefAddrInterruptHandler 01F9                           _I2C1_SlaveIsAddr 01B6  
                         _I2C1_SlaveIsRead 021D                      ?_I2C1_SlaveSendTxData 0070  
                    ?_I2C1_SlaveWrCallBack 0070                    ??_OSCILLATOR_Initialize 0073  
      _I2C1_SlaveDefBusColInterruptHandler 0000                            ?_I2C1_SlaveOpen 0070  
                   ??_I2C1_SlaveRdCallBack 0070      __end_of_I2C1_SlaveSetBusColIntHandler 01F3  
            _I2C1_SlaveSetBusColIntHandler 01ED                                 _T0CON0bits 059E  
                                 __ptext10 00A9                                   __ptext11 01D5  
                                 __ptext20 022D                                   __ptext12 01DB  
                                 __ptext21 0222                                   __ptext13 0204  
                                 __ptext30 0230                                   __ptext22 01A5  
                                 __ptext14 0209                                   __ptext31 0181  
                                 __ptext15 01E1                                   __ptext40 0236  
                                 __ptext32 0218                                   __ptext24 0157  
                                 __ptext16 01E7                                   __ptext33 01AF  
                                 __ptext25 0239                                   __ptext17 01ED  
                                 __ptext34 0226                                   __ptext26 0040  
                                 __ptext18 01F3                                   __ptext35 021D  
                                 __ptext27 0174                                   __ptext19 0166  
                                 __ptext36 01B6                                   __ptext28 020E  
                                 __ptext37 0233                                   __ptext29 0213  
                                 __ptext38 018E                                   __ptext39 01F9  
                             _SSP1CON1bits 0190                               _SSP1CON2bits 0191  
     __end_of_I2C1_SlaveSetWriteIntHandler 01DB               _I2C1_SlaveSetWriteIntHandler 01D5  
           ??_I2C1_SlaveSetWrColIntHandler 0075       __end_of_TMR0_DefaultInterruptHandler 023A  
             _TMR0_DefaultInterruptHandler 0239                                ?_I2C1_Close 0070  
               __end_of_I2C1_SlaveClearIrq 0236                    _I2C1_SlaveSetIsrHandler 01E7  
                              ?_I2C1_Write 0070                                   int$flags 007E  
       __end_of_INTERRUPT_InterruptManager 0031                 _INTERRUPT_InterruptManager 0004  
                             _SSP1STATbits 018F                                 _INTCONbits 000B  
                                 intlevel1 0000                    ?i1_I2C1_SlaveSendTxData 0070  
                   _I2C1_SlaveReleaseClock 0230                    ?_PIN_MANAGER_Initialize 0070  
                  ?_I2C1_SlaveIsTxBufEmpty 0070                     ??_I2C1_SlaveSendTxData 0073  
                   ??_I2C1_SlaveWrCallBack 0071              ?_TMR0_DefaultInterruptHandler 0070  
      I2C1_SlaveSetWriteIntHandler@handler 0073                                 _SSP1DATPPS 1EC6  
                               _SSP1CLKPPS 1EC5                     _I2C1_SlaveSetSlaveAddr 0209  
                          _TMR0_Initialize 0133                     _I2C1_SlaveSetSlaveMask 0204  
           __end_ofi1_I2C1_SlaveSendTxData 0218             __end_of_PIN_MANAGER_Initialize 0133  
           __end_of_I2C1_SlaveIsTxBufEmpty 01B6              __end_of_I2C1_SlaveIsRxBufFull 022A  
                ??_I2C1_SlaveSetIsrHandler 0075  
